Archive member included to satisfy reference by file (symbol)

c:/stm32/gcc-arm-none-eabi/bin/../lib/gcc/arm-none-eabi/7.3.1/../../../../arm-none-eabi/lib/thumb/v7e-m/fpv4-sp/hard\libstdc++_nano.a(new_op.o)
                              build/PROJECT/BlinkerPanel.o (operator new(unsigned int))
c:/stm32/gcc-arm-none-eabi/bin/../lib/gcc/arm-none-eabi/7.3.1/../../../../arm-none-eabi/lib/thumb/v7e-m/fpv4-sp/hard\libstdc++_nano.a(del_op.o)
                              build/PROJECT/BlinkerPanel.o (operator delete(void*))
c:/stm32/gcc-arm-none-eabi/bin/../lib/gcc/arm-none-eabi/7.3.1/../../../../arm-none-eabi/lib/thumb/v7e-m/fpv4-sp/hard\libstdc++_nano.a(eh_personality.o)
                              build/PROJECT/BlinkerPanel.o (__gxx_personality_v0)
c:/stm32/gcc-arm-none-eabi/bin/../lib/gcc/arm-none-eabi/7.3.1/../../../../arm-none-eabi/lib/thumb/v7e-m/fpv4-sp/hard\libstdc++_nano.a(eh_call.o)
                              c:/stm32/gcc-arm-none-eabi/bin/../lib/gcc/arm-none-eabi/7.3.1/../../../../arm-none-eabi/lib/thumb/v7e-m/fpv4-sp/hard\libstdc++_nano.a(eh_personality.o) (__cxa_call_terminate)
c:/stm32/gcc-arm-none-eabi/bin/../lib/gcc/arm-none-eabi/7.3.1/../../../../arm-none-eabi/lib/thumb/v7e-m/fpv4-sp/hard\libstdc++_nano.a(eh_aux_runtime.o)
                              build/ARDUINO/PanelComponents.o (__cxa_throw_bad_array_new_length)
c:/stm32/gcc-arm-none-eabi/bin/../lib/gcc/arm-none-eabi/7.3.1/../../../../arm-none-eabi/lib/thumb/v7e-m/fpv4-sp/hard\libstdc++_nano.a(del_opv.o)
                              build/ARDUINO/PanelDataObjects.o (operator delete[](void*))
c:/stm32/gcc-arm-none-eabi/bin/../lib/gcc/arm-none-eabi/7.3.1/../../../../arm-none-eabi/lib/thumb/v7e-m/fpv4-sp/hard\libstdc++_nano.a(new_handler.o)
                              c:/stm32/gcc-arm-none-eabi/bin/../lib/gcc/arm-none-eabi/7.3.1/../../../../arm-none-eabi/lib/thumb/v7e-m/fpv4-sp/hard\libstdc++_nano.a(new_op.o) (std::get_new_handler())
c:/stm32/gcc-arm-none-eabi/bin/../lib/gcc/arm-none-eabi/7.3.1/../../../../arm-none-eabi/lib/thumb/v7e-m/fpv4-sp/hard\libstdc++_nano.a(eh_catch.o)
                              c:/stm32/gcc-arm-none-eabi/bin/../lib/gcc/arm-none-eabi/7.3.1/../../../../arm-none-eabi/lib/thumb/v7e-m/fpv4-sp/hard\libstdc++_nano.a(eh_call.o) (__cxa_begin_catch)
c:/stm32/gcc-arm-none-eabi/bin/../lib/gcc/arm-none-eabi/7.3.1/../../../../arm-none-eabi/lib/thumb/v7e-m/fpv4-sp/hard\libstdc++_nano.a(eh_globals.o)
                              c:/stm32/gcc-arm-none-eabi/bin/../lib/gcc/arm-none-eabi/7.3.1/../../../../arm-none-eabi/lib/thumb/v7e-m/fpv4-sp/hard\libstdc++_nano.a(eh_catch.o) (__cxa_get_globals_fast)
c:/stm32/gcc-arm-none-eabi/bin/../lib/gcc/arm-none-eabi/7.3.1/../../../../arm-none-eabi/lib/thumb/v7e-m/fpv4-sp/hard\libstdc++_nano.a(eh_terminate.o)
                              c:/stm32/gcc-arm-none-eabi/bin/../lib/gcc/arm-none-eabi/7.3.1/../../../../arm-none-eabi/lib/thumb/v7e-m/fpv4-sp/hard\libstdc++_nano.a(eh_call.o) (__cxxabiv1::__terminate(void (*)()))
c:/stm32/gcc-arm-none-eabi/bin/../lib/gcc/arm-none-eabi/7.3.1/../../../../arm-none-eabi/lib/thumb/v7e-m/fpv4-sp/hard\libstdc++_nano.a(eh_arm.o)
                              build/PROJECT/BlinkerPanel.o (__cxa_end_cleanup)
c:/stm32/gcc-arm-none-eabi/bin/../lib/gcc/arm-none-eabi/7.3.1/../../../../arm-none-eabi/lib/thumb/v7e-m/fpv4-sp/hard\libstdc++_nano.a(atexit_arm.o)
                              build/PROJECT/sketch.o (__aeabi_atexit)
c:/stm32/gcc-arm-none-eabi/bin/../lib/gcc/arm-none-eabi/7.3.1/../../../../arm-none-eabi/lib/thumb/v7e-m/fpv4-sp/hard\libstdc++_nano.a(new_opv.o)
                              build/ARDUINO/HardwareInterfaces.o (operator new[](unsigned int))
c:/stm32/gcc-arm-none-eabi/bin/../lib/gcc/arm-none-eabi/7.3.1/../../../../arm-none-eabi/lib/thumb/v7e-m/fpv4-sp/hard\libstdc++_nano.a(eh_exception.o)
                              c:/stm32/gcc-arm-none-eabi/bin/../lib/gcc/arm-none-eabi/7.3.1/../../../../arm-none-eabi/lib/thumb/v7e-m/fpv4-sp/hard\libstdc++_nano.a(eh_arm.o) (typeinfo for __cxxabiv1::__forced_unwind)
c:/stm32/gcc-arm-none-eabi/bin/../lib/gcc/arm-none-eabi/7.3.1/../../../../arm-none-eabi/lib/thumb/v7e-m/fpv4-sp/hard\libstdc++_nano.a(eh_term_handler.o)
                              c:/stm32/gcc-arm-none-eabi/bin/../lib/gcc/arm-none-eabi/7.3.1/../../../../arm-none-eabi/lib/thumb/v7e-m/fpv4-sp/hard\libstdc++_nano.a(eh_terminate.o) (__cxxabiv1::__terminate_handler)
c:/stm32/gcc-arm-none-eabi/bin/../lib/gcc/arm-none-eabi/7.3.1/../../../../arm-none-eabi/lib/thumb/v7e-m/fpv4-sp/hard\libstdc++_nano.a(eh_unex_handler.o)
                              c:/stm32/gcc-arm-none-eabi/bin/../lib/gcc/arm-none-eabi/7.3.1/../../../../arm-none-eabi/lib/thumb/v7e-m/fpv4-sp/hard\libstdc++_nano.a(eh_terminate.o) (__cxxabiv1::__unexpected_handler)
c:/stm32/gcc-arm-none-eabi/bin/../lib/gcc/arm-none-eabi/7.3.1/../../../../arm-none-eabi/lib/thumb/v7e-m/fpv4-sp/hard\libstdc++_nano.a(del_ops.o)
                              c:/stm32/gcc-arm-none-eabi/bin/../lib/gcc/arm-none-eabi/7.3.1/../../../../arm-none-eabi/lib/thumb/v7e-m/fpv4-sp/hard\libstdc++_nano.a(eh_exception.o) (operator delete(void*, unsigned int))
c:/stm32/gcc-arm-none-eabi/bin/../lib/gcc/arm-none-eabi/7.3.1/../../../../arm-none-eabi/lib/thumb/v7e-m/fpv4-sp/hard\libstdc++_nano.a(si_class_type_info.o)
                              c:/stm32/gcc-arm-none-eabi/bin/../lib/gcc/arm-none-eabi/7.3.1/../../../../arm-none-eabi/lib/thumb/v7e-m/fpv4-sp/hard\libstdc++_nano.a(eh_exception.o) (vtable for __cxxabiv1::__si_class_type_info)
c:/stm32/gcc-arm-none-eabi/bin/../lib/gcc/arm-none-eabi/7.3.1/../../../../arm-none-eabi/lib/thumb/v7e-m/fpv4-sp/hard\libstdc++_nano.a(tinfo.o)
                              c:/stm32/gcc-arm-none-eabi/bin/../lib/gcc/arm-none-eabi/7.3.1/../../../../arm-none-eabi/lib/thumb/v7e-m/fpv4-sp/hard\libstdc++_nano.a(si_class_type_info.o) (std::type_info::__is_pointer_p() const)
c:/stm32/gcc-arm-none-eabi/bin/../lib/gcc/arm-none-eabi/7.3.1/../../../../arm-none-eabi/lib/thumb/v7e-m/fpv4-sp/hard\libstdc++_nano.a(class_type_info.o)
                              c:/stm32/gcc-arm-none-eabi/bin/../lib/gcc/arm-none-eabi/7.3.1/../../../../arm-none-eabi/lib/thumb/v7e-m/fpv4-sp/hard\libstdc++_nano.a(si_class_type_info.o) (__cxxabiv1::__class_type_info::__do_upcast(__cxxabiv1::__class_type_info const*, void**) const)
c:/stm32/gcc-arm-none-eabi/bin/../lib/gcc/arm-none-eabi/7.3.1/../../../../arm-none-eabi/lib/thumb/v7e-m/fpv4-sp/hard\libc_nano.a(lib_a-abort.o)
                              c:/stm32/gcc-arm-none-eabi/bin/../lib/gcc/arm-none-eabi/7.3.1/../../../../arm-none-eabi/lib/thumb/v7e-m/fpv4-sp/hard\libstdc++_nano.a(new_op.o) (abort)
c:/stm32/gcc-arm-none-eabi/bin/../lib/gcc/arm-none-eabi/7.3.1/../../../../arm-none-eabi/lib/thumb/v7e-m/fpv4-sp/hard\libc_nano.a(lib_a-atof.o)
                              build/ARDUINO/WString.o (atof)
c:/stm32/gcc-arm-none-eabi/bin/../lib/gcc/arm-none-eabi/7.3.1/../../../../arm-none-eabi/lib/thumb/v7e-m/fpv4-sp/hard\libc_nano.a(lib_a-atol.o)
                              build/ARDUINO/WString.o (atol)
c:/stm32/gcc-arm-none-eabi/bin/../lib/gcc/arm-none-eabi/7.3.1/../../../../arm-none-eabi/lib/thumb/v7e-m/fpv4-sp/hard\libc_nano.a(lib_a-cxa_atexit.o)
                              c:/stm32/gcc-arm-none-eabi/bin/../lib/gcc/arm-none-eabi/7.3.1/../../../../arm-none-eabi/lib/thumb/v7e-m/fpv4-sp/hard\libstdc++_nano.a(atexit_arm.o) (__cxa_atexit)
c:/stm32/gcc-arm-none-eabi/bin/../lib/gcc/arm-none-eabi/7.3.1/../../../../arm-none-eabi/lib/thumb/v7e-m/fpv4-sp/hard\libc_nano.a(lib_a-exit.o)
                              c:/stm32/gcc-arm-none-eabi/bin/../lib/gcc/arm-none-eabi/7.3.1/../../../../arm-none-eabi/lib/thumb/v7e-m/fpv4-sp/hard/crt0.o (exit)
c:/stm32/gcc-arm-none-eabi/bin/../lib/gcc/arm-none-eabi/7.3.1/../../../../arm-none-eabi/lib/thumb/v7e-m/fpv4-sp/hard\libc_nano.a(lib_a-impure.o)
                              c:/stm32/gcc-arm-none-eabi/bin/../lib/gcc/arm-none-eabi/7.3.1/../../../../arm-none-eabi/lib/thumb/v7e-m/fpv4-sp/hard\libc_nano.a(lib_a-exit.o) (_global_impure_ptr)
c:/stm32/gcc-arm-none-eabi/bin/../lib/gcc/arm-none-eabi/7.3.1/../../../../arm-none-eabi/lib/thumb/v7e-m/fpv4-sp/hard\libc_nano.a(lib_a-init.o)
                              c:/stm32/gcc-arm-none-eabi/bin/../lib/gcc/arm-none-eabi/7.3.1/../../../../arm-none-eabi/lib/thumb/v7e-m/fpv4-sp/hard/crt0.o (__libc_init_array)
c:/stm32/gcc-arm-none-eabi/bin/../lib/gcc/arm-none-eabi/7.3.1/../../../../arm-none-eabi/lib/thumb/v7e-m/fpv4-sp/hard\libc_nano.a(lib_a-isspace.o)
                              build/ARDUINO/WString.o (isspace)
c:/stm32/gcc-arm-none-eabi/bin/../lib/gcc/arm-none-eabi/7.3.1/../../../../arm-none-eabi/lib/thumb/v7e-m/fpv4-sp/hard\libc_nano.a(lib_a-locale.o)
                              c:/stm32/gcc-arm-none-eabi/bin/../lib/gcc/arm-none-eabi/7.3.1/../../../../arm-none-eabi/lib/thumb/v7e-m/fpv4-sp/hard\libc_nano.a(lib_a-isspace.o) (__locale_ctype_ptr)
c:/stm32/gcc-arm-none-eabi/bin/../lib/gcc/arm-none-eabi/7.3.1/../../../../arm-none-eabi/lib/thumb/v7e-m/fpv4-sp/hard\libc_nano.a(lib_a-malloc.o)
                              c:/stm32/gcc-arm-none-eabi/bin/../lib/gcc/arm-none-eabi/7.3.1/../../../../arm-none-eabi/lib/thumb/v7e-m/fpv4-sp/hard\libstdc++_nano.a(new_op.o) (malloc)
c:/stm32/gcc-arm-none-eabi/bin/../lib/gcc/arm-none-eabi/7.3.1/../../../../arm-none-eabi/lib/thumb/v7e-m/fpv4-sp/hard\libc_nano.a(lib_a-mbtowc_r.o)
                              c:/stm32/gcc-arm-none-eabi/bin/../lib/gcc/arm-none-eabi/7.3.1/../../../../arm-none-eabi/lib/thumb/v7e-m/fpv4-sp/hard\libc_nano.a(lib_a-locale.o) (__ascii_mbtowc)
c:/stm32/gcc-arm-none-eabi/bin/../lib/gcc/arm-none-eabi/7.3.1/../../../../arm-none-eabi/lib/thumb/v7e-m/fpv4-sp/hard\libc_nano.a(lib_a-memcpy-stub.o)
                              build/ARDUINO/PanelComponents.o (memcpy)
c:/stm32/gcc-arm-none-eabi/bin/../lib/gcc/arm-none-eabi/7.3.1/../../../../arm-none-eabi/lib/thumb/v7e-m/fpv4-sp/hard\libc_nano.a(lib_a-memmove.o)
                              build/ARDUINO/WString.o (memmove)
c:/stm32/gcc-arm-none-eabi/bin/../lib/gcc/arm-none-eabi/7.3.1/../../../../arm-none-eabi/lib/thumb/v7e-m/fpv4-sp/hard\libc_nano.a(lib_a-memset.o)
                              c:/stm32/gcc-arm-none-eabi/bin/../lib/gcc/arm-none-eabi/7.3.1/../../../../arm-none-eabi/lib/thumb/v7e-m/fpv4-sp/hard/crt0.o (memset)
c:/stm32/gcc-arm-none-eabi/bin/../lib/gcc/arm-none-eabi/7.3.1/../../../../arm-none-eabi/lib/thumb/v7e-m/fpv4-sp/hard\libc_nano.a(lib_a-nano-freer.o)
                              c:/stm32/gcc-arm-none-eabi/bin/../lib/gcc/arm-none-eabi/7.3.1/../../../../arm-none-eabi/lib/thumb/v7e-m/fpv4-sp/hard\libc_nano.a(lib_a-malloc.o) (_free_r)
c:/stm32/gcc-arm-none-eabi/bin/../lib/gcc/arm-none-eabi/7.3.1/../../../../arm-none-eabi/lib/thumb/v7e-m/fpv4-sp/hard\libc_nano.a(lib_a-nano-mallocr.o)
                              c:/stm32/gcc-arm-none-eabi/bin/../lib/gcc/arm-none-eabi/7.3.1/../../../../arm-none-eabi/lib/thumb/v7e-m/fpv4-sp/hard\libc_nano.a(lib_a-malloc.o) (_malloc_r)
c:/stm32/gcc-arm-none-eabi/bin/../lib/gcc/arm-none-eabi/7.3.1/../../../../arm-none-eabi/lib/thumb/v7e-m/fpv4-sp/hard\libc_nano.a(lib_a-on_exit_args.o)
                              c:/stm32/gcc-arm-none-eabi/bin/../lib/gcc/arm-none-eabi/7.3.1/../../../../arm-none-eabi/lib/thumb/v7e-m/fpv4-sp/hard\libc_nano.a(lib_a-cxa_atexit.o) (__on_exit_args)
c:/stm32/gcc-arm-none-eabi/bin/../lib/gcc/arm-none-eabi/7.3.1/../../../../arm-none-eabi/lib/thumb/v7e-m/fpv4-sp/hard\libc_nano.a(lib_a-realloc.o)
                              build/ARDUINO/WString.o (realloc)
c:/stm32/gcc-arm-none-eabi/bin/../lib/gcc/arm-none-eabi/7.3.1/../../../../arm-none-eabi/lib/thumb/v7e-m/fpv4-sp/hard\libc_nano.a(lib_a-sbrkr.o)
                              c:/stm32/gcc-arm-none-eabi/bin/../lib/gcc/arm-none-eabi/7.3.1/../../../../arm-none-eabi/lib/thumb/v7e-m/fpv4-sp/hard\libc_nano.a(lib_a-nano-mallocr.o) (_sbrk_r)
c:/stm32/gcc-arm-none-eabi/bin/../lib/gcc/arm-none-eabi/7.3.1/../../../../arm-none-eabi/lib/thumb/v7e-m/fpv4-sp/hard\libc_nano.a(lib_a-signal.o)
                              c:/stm32/gcc-arm-none-eabi/bin/../lib/gcc/arm-none-eabi/7.3.1/../../../../arm-none-eabi/lib/thumb/v7e-m/fpv4-sp/hard\libc_nano.a(lib_a-abort.o) (raise)
c:/stm32/gcc-arm-none-eabi/bin/../lib/gcc/arm-none-eabi/7.3.1/../../../../arm-none-eabi/lib/thumb/v7e-m/fpv4-sp/hard\libc_nano.a(lib_a-signalr.o)
                              c:/stm32/gcc-arm-none-eabi/bin/../lib/gcc/arm-none-eabi/7.3.1/../../../../arm-none-eabi/lib/thumb/v7e-m/fpv4-sp/hard\libc_nano.a(lib_a-signal.o) (_kill_r)
c:/stm32/gcc-arm-none-eabi/bin/../lib/gcc/arm-none-eabi/7.3.1/../../../../arm-none-eabi/lib/thumb/v7e-m/fpv4-sp/hard\libc_nano.a(lib_a-sprintf.o)
                              build/PROJECT/BlinkerPanel.o (sprintf)
c:/stm32/gcc-arm-none-eabi/bin/../lib/gcc/arm-none-eabi/7.3.1/../../../../arm-none-eabi/lib/thumb/v7e-m/fpv4-sp/hard\libc_nano.a(lib_a-strchr.o)
                              build/ARDUINO/WString.o (strchr)
c:/stm32/gcc-arm-none-eabi/bin/../lib/gcc/arm-none-eabi/7.3.1/../../../../arm-none-eabi/lib/thumb/v7e-m/fpv4-sp/hard\libc_nano.a(lib_a-strcmp.o)
                              build/ARDUINO/WString.o (strcmp)
c:/stm32/gcc-arm-none-eabi/bin/../lib/gcc/arm-none-eabi/7.3.1/../../../../arm-none-eabi/lib/thumb/v7e-m/fpv4-sp/hard\libc_nano.a(lib_a-strcpy.o)
                              build/ARDUINO/WString.o (strcpy)
c:/stm32/gcc-arm-none-eabi/bin/../lib/gcc/arm-none-eabi/7.3.1/../../../../arm-none-eabi/lib/thumb/v7e-m/fpv4-sp/hard\libc_nano.a(lib_a-strlen.o)
                              build/ARDUINO/Print.o (strlen)
c:/stm32/gcc-arm-none-eabi/bin/../lib/gcc/arm-none-eabi/7.3.1/../../../../arm-none-eabi/lib/thumb/v7e-m/fpv4-sp/hard\libc_nano.a(lib_a-strncmp.o)
                              build/ARDUINO/WString.o (strncmp)
c:/stm32/gcc-arm-none-eabi/bin/../lib/gcc/arm-none-eabi/7.3.1/../../../../arm-none-eabi/lib/thumb/v7e-m/fpv4-sp/hard\libc_nano.a(lib_a-strncpy.o)
                              build/ARDUINO/WString.o (strncpy)
c:/stm32/gcc-arm-none-eabi/bin/../lib/gcc/arm-none-eabi/7.3.1/../../../../arm-none-eabi/lib/thumb/v7e-m/fpv4-sp/hard\libc_nano.a(lib_a-strrchr.o)
                              build/ARDUINO/WString.o (strrchr)
c:/stm32/gcc-arm-none-eabi/bin/../lib/gcc/arm-none-eabi/7.3.1/../../../../arm-none-eabi/lib/thumb/v7e-m/fpv4-sp/hard\libc_nano.a(lib_a-strstr.o)
                              build/ARDUINO/WString.o (strstr)
c:/stm32/gcc-arm-none-eabi/bin/../lib/gcc/arm-none-eabi/7.3.1/../../../../arm-none-eabi/lib/thumb/v7e-m/fpv4-sp/hard\libc_nano.a(lib_a-strtod.o)
                              c:/stm32/gcc-arm-none-eabi/bin/../lib/gcc/arm-none-eabi/7.3.1/../../../../arm-none-eabi/lib/thumb/v7e-m/fpv4-sp/hard\libc_nano.a(lib_a-atof.o) (strtod)
c:/stm32/gcc-arm-none-eabi/bin/../lib/gcc/arm-none-eabi/7.3.1/../../../../arm-none-eabi/lib/thumb/v7e-m/fpv4-sp/hard\libc_nano.a(lib_a-strtol.o)
                              c:/stm32/gcc-arm-none-eabi/bin/../lib/gcc/arm-none-eabi/7.3.1/../../../../arm-none-eabi/lib/thumb/v7e-m/fpv4-sp/hard\libc_nano.a(lib_a-atol.o) (_strtol_r)
c:/stm32/gcc-arm-none-eabi/bin/../lib/gcc/arm-none-eabi/7.3.1/../../../../arm-none-eabi/lib/thumb/v7e-m/fpv4-sp/hard\libc_nano.a(lib_a-tolower.o)
                              build/ARDUINO/WString.o (tolower)
c:/stm32/gcc-arm-none-eabi/bin/../lib/gcc/arm-none-eabi/7.3.1/../../../../arm-none-eabi/lib/thumb/v7e-m/fpv4-sp/hard\libc_nano.a(lib_a-toupper.o)
                              build/ARDUINO/WString.o (toupper)
c:/stm32/gcc-arm-none-eabi/bin/../lib/gcc/arm-none-eabi/7.3.1/../../../../arm-none-eabi/lib/thumb/v7e-m/fpv4-sp/hard\libc_nano.a(lib_a-wctomb_r.o)
                              c:/stm32/gcc-arm-none-eabi/bin/../lib/gcc/arm-none-eabi/7.3.1/../../../../arm-none-eabi/lib/thumb/v7e-m/fpv4-sp/hard\libc_nano.a(lib_a-locale.o) (__ascii_wctomb)
c:/stm32/gcc-arm-none-eabi/bin/../lib/gcc/arm-none-eabi/7.3.1/../../../../arm-none-eabi/lib/thumb/v7e-m/fpv4-sp/hard\libc_nano.a(lib_a-ctype_.o)
                              c:/stm32/gcc-arm-none-eabi/bin/../lib/gcc/arm-none-eabi/7.3.1/../../../../arm-none-eabi/lib/thumb/v7e-m/fpv4-sp/hard\libc_nano.a(lib_a-locale.o) (_ctype_)
c:/stm32/gcc-arm-none-eabi/bin/../lib/gcc/arm-none-eabi/7.3.1/../../../../arm-none-eabi/lib/thumb/v7e-m/fpv4-sp/hard\libc_nano.a(lib_a-gdtoa-gethex.o)
                              c:/stm32/gcc-arm-none-eabi/bin/../lib/gcc/arm-none-eabi/7.3.1/../../../../arm-none-eabi/lib/thumb/v7e-m/fpv4-sp/hard\libc_nano.a(lib_a-strtod.o) (__gethex)
c:/stm32/gcc-arm-none-eabi/bin/../lib/gcc/arm-none-eabi/7.3.1/../../../../arm-none-eabi/lib/thumb/v7e-m/fpv4-sp/hard\libc_nano.a(lib_a-gdtoa-hexnan.o)
                              c:/stm32/gcc-arm-none-eabi/bin/../lib/gcc/arm-none-eabi/7.3.1/../../../../arm-none-eabi/lib/thumb/v7e-m/fpv4-sp/hard\libc_nano.a(lib_a-strtod.o) (__match)
c:/stm32/gcc-arm-none-eabi/bin/../lib/gcc/arm-none-eabi/7.3.1/../../../../arm-none-eabi/lib/thumb/v7e-m/fpv4-sp/hard\libc_nano.a(lib_a-localeconv.o)
                              c:/stm32/gcc-arm-none-eabi/bin/../lib/gcc/arm-none-eabi/7.3.1/../../../../arm-none-eabi/lib/thumb/v7e-m/fpv4-sp/hard\libc_nano.a(lib_a-strtod.o) (__localeconv_l)
c:/stm32/gcc-arm-none-eabi/bin/../lib/gcc/arm-none-eabi/7.3.1/../../../../arm-none-eabi/lib/thumb/v7e-m/fpv4-sp/hard\libc_nano.a(lib_a-mlock.o)
                              c:/stm32/gcc-arm-none-eabi/bin/../lib/gcc/arm-none-eabi/7.3.1/../../../../arm-none-eabi/lib/thumb/v7e-m/fpv4-sp/hard\libc_nano.a(lib_a-nano-freer.o) (__malloc_lock)
c:/stm32/gcc-arm-none-eabi/bin/../lib/gcc/arm-none-eabi/7.3.1/../../../../arm-none-eabi/lib/thumb/v7e-m/fpv4-sp/hard\libc_nano.a(lib_a-mprec.o)
                              c:/stm32/gcc-arm-none-eabi/bin/../lib/gcc/arm-none-eabi/7.3.1/../../../../arm-none-eabi/lib/thumb/v7e-m/fpv4-sp/hard\libc_nano.a(lib_a-strtod.o) (_Balloc)
c:/stm32/gcc-arm-none-eabi/bin/../lib/gcc/arm-none-eabi/7.3.1/../../../../arm-none-eabi/lib/thumb/v7e-m/fpv4-sp/hard\libc_nano.a(lib_a-nano-callocr.o)
                              c:/stm32/gcc-arm-none-eabi/bin/../lib/gcc/arm-none-eabi/7.3.1/../../../../arm-none-eabi/lib/thumb/v7e-m/fpv4-sp/hard\libc_nano.a(lib_a-mprec.o) (_calloc_r)
c:/stm32/gcc-arm-none-eabi/bin/../lib/gcc/arm-none-eabi/7.3.1/../../../../arm-none-eabi/lib/thumb/v7e-m/fpv4-sp/hard\libc_nano.a(lib_a-nano-reallocr.o)
                              c:/stm32/gcc-arm-none-eabi/bin/../lib/gcc/arm-none-eabi/7.3.1/../../../../arm-none-eabi/lib/thumb/v7e-m/fpv4-sp/hard\libc_nano.a(lib_a-realloc.o) (_realloc_r)
c:/stm32/gcc-arm-none-eabi/bin/../lib/gcc/arm-none-eabi/7.3.1/../../../../arm-none-eabi/lib/thumb/v7e-m/fpv4-sp/hard\libc_nano.a(lib_a-nano-svfprintf.o)
                              c:/stm32/gcc-arm-none-eabi/bin/../lib/gcc/arm-none-eabi/7.3.1/../../../../arm-none-eabi/lib/thumb/v7e-m/fpv4-sp/hard\libc_nano.a(lib_a-sprintf.o) (_svfprintf_r)
c:/stm32/gcc-arm-none-eabi/bin/../lib/gcc/arm-none-eabi/7.3.1/../../../../arm-none-eabi/lib/thumb/v7e-m/fpv4-sp/hard\libc_nano.a(lib_a-nano-vfprintf_i.o)
                              c:/stm32/gcc-arm-none-eabi/bin/../lib/gcc/arm-none-eabi/7.3.1/../../../../arm-none-eabi/lib/thumb/v7e-m/fpv4-sp/hard\libc_nano.a(lib_a-nano-svfprintf.o) (_printf_i)
c:/stm32/gcc-arm-none-eabi/bin/../lib/gcc/arm-none-eabi/7.3.1/../../../../arm-none-eabi/lib/thumb/v7e-m/fpv4-sp/hard\libc_nano.a(lib_a-reent.o)
                              c:/stm32/gcc-arm-none-eabi/bin/../lib/gcc/arm-none-eabi/7.3.1/../../../../arm-none-eabi/lib/thumb/v7e-m/fpv4-sp/hard\libc_nano.a(lib_a-sbrkr.o) (errno)
c:/stm32/gcc-arm-none-eabi/bin/../lib/gcc/arm-none-eabi/7.3.1/../../../../arm-none-eabi/lib/thumb/v7e-m/fpv4-sp/hard\libc_nano.a(lib_a-sf_nan.o)
                              c:/stm32/gcc-arm-none-eabi/bin/../lib/gcc/arm-none-eabi/7.3.1/../../../../arm-none-eabi/lib/thumb/v7e-m/fpv4-sp/hard\libc_nano.a(lib_a-strtod.o) (nanf)
c:/stm32/gcc-arm-none-eabi/bin/../lib/gcc/arm-none-eabi/7.3.1/../../../../arm-none-eabi/lib/thumb/v7e-m/fpv4-sp/hard\libc_nano.a(lib_a-memchr.o)
                              c:/stm32/gcc-arm-none-eabi/bin/../lib/gcc/arm-none-eabi/7.3.1/../../../../arm-none-eabi/lib/thumb/v7e-m/fpv4-sp/hard\libc_nano.a(lib_a-nano-svfprintf.o) (memchr)
c:/stm32/gcc-arm-none-eabi/bin/../lib/gcc/arm-none-eabi/7.3.1/../../../../arm-none-eabi/lib/thumb/v7e-m/fpv4-sp/hard\libc_nano.a(lib_a-nano-msizer.o)
                              c:/stm32/gcc-arm-none-eabi/bin/../lib/gcc/arm-none-eabi/7.3.1/../../../../arm-none-eabi/lib/thumb/v7e-m/fpv4-sp/hard\libc_nano.a(lib_a-nano-reallocr.o) (_malloc_usable_size_r)
c:/stm32/gcc-arm-none-eabi/bin/../lib/gcc/arm-none-eabi/7.3.1/thumb/v7e-m/fpv4-sp/hard\libgcc.a(_arm_addsubdf3.o)
                              build/ARDUINO/Print.o (__aeabi_dsub)
c:/stm32/gcc-arm-none-eabi/bin/../lib/gcc/arm-none-eabi/7.3.1/thumb/v7e-m/fpv4-sp/hard\libgcc.a(_arm_muldivdf3.o)
                              build/ARDUINO/Print.o (__aeabi_dmul)
c:/stm32/gcc-arm-none-eabi/bin/../lib/gcc/arm-none-eabi/7.3.1/thumb/v7e-m/fpv4-sp/hard\libgcc.a(_arm_cmpdf2.o)
                              c:/stm32/gcc-arm-none-eabi/bin/../lib/gcc/arm-none-eabi/7.3.1/../../../../arm-none-eabi/lib/thumb/v7e-m/fpv4-sp/hard\libc_nano.a(lib_a-strtod.o) (__aeabi_dcmpeq)
c:/stm32/gcc-arm-none-eabi/bin/../lib/gcc/arm-none-eabi/7.3.1/thumb/v7e-m/fpv4-sp/hard\libgcc.a(_arm_unorddf2.o)
                              build/ARDUINO/Print.o (__aeabi_dcmpun)
c:/stm32/gcc-arm-none-eabi/bin/../lib/gcc/arm-none-eabi/7.3.1/thumb/v7e-m/fpv4-sp/hard\libgcc.a(_arm_fixdfsi.o)
                              build/ARDUINO/Print.o (__aeabi_d2iz)
c:/stm32/gcc-arm-none-eabi/bin/../lib/gcc/arm-none-eabi/7.3.1/thumb/v7e-m/fpv4-sp/hard\libgcc.a(_arm_fixunsdfsi.o)
                              build/ARDUINO/Print.o (__aeabi_d2uiz)
c:/stm32/gcc-arm-none-eabi/bin/../lib/gcc/arm-none-eabi/7.3.1/thumb/v7e-m/fpv4-sp/hard\libgcc.a(_arm_truncdfsf2.o)
                              build/ARDUINO/Stream.o (__aeabi_d2f)
c:/stm32/gcc-arm-none-eabi/bin/../lib/gcc/arm-none-eabi/7.3.1/thumb/v7e-m/fpv4-sp/hard\libgcc.a(_aeabi_uldivmod.o)
                              build/ARDUINO/Print.o (__aeabi_uldivmod)
c:/stm32/gcc-arm-none-eabi/bin/../lib/gcc/arm-none-eabi/7.3.1/thumb/v7e-m/fpv4-sp/hard\libgcc.a(_udivmoddi4.o)
                              c:/stm32/gcc-arm-none-eabi/bin/../lib/gcc/arm-none-eabi/7.3.1/thumb/v7e-m/fpv4-sp/hard\libgcc.a(_aeabi_uldivmod.o) (__udivmoddi4)
c:/stm32/gcc-arm-none-eabi/bin/../lib/gcc/arm-none-eabi/7.3.1/thumb/v7e-m/fpv4-sp/hard\libgcc.a(unwind-arm.o)
                              build/PROJECT/App.o (__aeabi_unwind_cpp_pr0)
c:/stm32/gcc-arm-none-eabi/bin/../lib/gcc/arm-none-eabi/7.3.1/thumb/v7e-m/fpv4-sp/hard\libgcc.a(libunwind.o)
                              c:/stm32/gcc-arm-none-eabi/bin/../lib/gcc/arm-none-eabi/7.3.1/thumb/v7e-m/fpv4-sp/hard\libgcc.a(unwind-arm.o) (restore_core_regs)
c:/stm32/gcc-arm-none-eabi/bin/../lib/gcc/arm-none-eabi/7.3.1/thumb/v7e-m/fpv4-sp/hard\libgcc.a(pr-support.o)
                              c:/stm32/gcc-arm-none-eabi/bin/../lib/gcc/arm-none-eabi/7.3.1/thumb/v7e-m/fpv4-sp/hard\libgcc.a(unwind-arm.o) (__gnu_unwind_execute)
c:/stm32/gcc-arm-none-eabi/bin/../lib/gcc/arm-none-eabi/7.3.1/thumb/v7e-m/fpv4-sp/hard\libgcc.a(_dvmd_tls.o)
                              c:/stm32/gcc-arm-none-eabi/bin/../lib/gcc/arm-none-eabi/7.3.1/thumb/v7e-m/fpv4-sp/hard\libgcc.a(_aeabi_uldivmod.o) (__aeabi_ldiv0)
c:/stm32/gcc-arm-none-eabi/bin/../lib/gcc/arm-none-eabi/7.3.1/../../../../arm-none-eabi/lib/thumb/v7e-m/fpv4-sp/hard\libnosys.a(getpid.o)
                              c:/stm32/gcc-arm-none-eabi/bin/../lib/gcc/arm-none-eabi/7.3.1/../../../../arm-none-eabi/lib/thumb/v7e-m/fpv4-sp/hard\libc_nano.a(lib_a-signalr.o) (_getpid)
c:/stm32/gcc-arm-none-eabi/bin/../lib/gcc/arm-none-eabi/7.3.1/../../../../arm-none-eabi/lib/thumb/v7e-m/fpv4-sp/hard\libnosys.a(kill.o)
                              c:/stm32/gcc-arm-none-eabi/bin/../lib/gcc/arm-none-eabi/7.3.1/../../../../arm-none-eabi/lib/thumb/v7e-m/fpv4-sp/hard\libc_nano.a(lib_a-signalr.o) (_kill)
c:/stm32/gcc-arm-none-eabi/bin/../lib/gcc/arm-none-eabi/7.3.1/../../../../arm-none-eabi/lib/thumb/v7e-m/fpv4-sp/hard\libnosys.a(sbrk.o)
                              c:/stm32/gcc-arm-none-eabi/bin/../lib/gcc/arm-none-eabi/7.3.1/../../../../arm-none-eabi/lib/thumb/v7e-m/fpv4-sp/hard\libc_nano.a(lib_a-sbrkr.o) (_sbrk)
c:/stm32/gcc-arm-none-eabi/bin/../lib/gcc/arm-none-eabi/7.3.1/../../../../arm-none-eabi/lib/thumb/v7e-m/fpv4-sp/hard\libnosys.a(_exit.o)
                              c:/stm32/gcc-arm-none-eabi/bin/../lib/gcc/arm-none-eabi/7.3.1/../../../../arm-none-eabi/lib/thumb/v7e-m/fpv4-sp/hard\libc_nano.a(lib_a-abort.o) (_exit)

Allocating common symbols
Common symbol       size              file

adcValues           0x14              build/HAL/adc_ext.o
errno               0x4               c:/stm32/gcc-arm-none-eabi/bin/../lib/gcc/arm-none-eabi/7.3.1/../../../../arm-none-eabi/lib/thumb/v7e-m/fpv4-sp/hard\libc_nano.a(lib_a-reent.o)
debug_var           0x4               build/HAL/unused_int.o
uwTick              0x4               build/HAL/stm32f4xx_hal.o
pFlash              0x20              build/HAL/stm32f4xx_hal_flash.o
SYSTICK_VALUE       0x4               build/HAL/main.o
hdma_usart6_tx      0x60              build/HAL/usart.o
hadc1               0x48              build/HAL/adc.o
VCP_UART            0x230             build/HAL/usart.o
hdma_usart2_tx      0x60              build/HAL/usart.o
D01_UART            0x230             build/HAL/usart.o
huart6              0x40              build/HAL/usart.o
hspi1               0x58              build/HAL/spi.o
htim2               0x3c              build/HAL/tim.o
huart2              0x40              build/HAL/usart.o
hdma_spi1_tx        0x60              build/HAL/spi.o
usrUartDB           0x204             build/HAL/usart.o

Discarded input sections

 .text          0x00000000        0x0 c:/stm32/gcc-arm-none-eabi/bin/../lib/gcc/arm-none-eabi/7.3.1/thumb/v7e-m/fpv4-sp/hard/crti.o
 .data          0x00000000        0x0 c:/stm32/gcc-arm-none-eabi/bin/../lib/gcc/arm-none-eabi/7.3.1/thumb/v7e-m/fpv4-sp/hard/crti.o
 .bss           0x00000000        0x0 c:/stm32/gcc-arm-none-eabi/bin/../lib/gcc/arm-none-eabi/7.3.1/thumb/v7e-m/fpv4-sp/hard/crti.o
 .text          0x00000000       0x74 c:/stm32/gcc-arm-none-eabi/bin/../lib/gcc/arm-none-eabi/7.3.1/../../../../arm-none-eabi/lib/thumb/v7e-m/fpv4-sp/hard/crt0.o
 .data          0x00000000        0x0 c:/stm32/gcc-arm-none-eabi/bin/../lib/gcc/arm-none-eabi/7.3.1/../../../../arm-none-eabi/lib/thumb/v7e-m/fpv4-sp/hard/crt0.o
 .bss           0x00000000        0x0 c:/stm32/gcc-arm-none-eabi/bin/../lib/gcc/arm-none-eabi/7.3.1/../../../../arm-none-eabi/lib/thumb/v7e-m/fpv4-sp/hard/crt0.o
 .ARM.extab     0x00000000        0x0 c:/stm32/gcc-arm-none-eabi/bin/../lib/gcc/arm-none-eabi/7.3.1/../../../../arm-none-eabi/lib/thumb/v7e-m/fpv4-sp/hard/crt0.o
 .ARM.exidx     0x00000000        0x8 c:/stm32/gcc-arm-none-eabi/bin/../lib/gcc/arm-none-eabi/7.3.1/../../../../arm-none-eabi/lib/thumb/v7e-m/fpv4-sp/hard/crt0.o
 .ARM.attributes
                0x00000000       0x20 c:/stm32/gcc-arm-none-eabi/bin/../lib/gcc/arm-none-eabi/7.3.1/../../../../arm-none-eabi/lib/thumb/v7e-m/fpv4-sp/hard/crt0.o
 .data          0x00000000        0x0 build/PROJECT/App.o
 .bss           0x00000000        0x0 build/PROJECT/App.o
 .ARM.extab     0x00000000        0x0 build/PROJECT/App.o
 .group         0x00000000       0x18 build/PROJECT/sketch.o
 .group         0x00000000       0x14 build/PROJECT/sketch.o
 .group         0x00000000       0x14 build/PROJECT/sketch.o
 .group         0x00000000       0x14 build/PROJECT/sketch.o
 .group         0x00000000       0x18 build/PROJECT/sketch.o
 .group         0x00000000       0x18 build/PROJECT/sketch.o
 .group         0x00000000       0x14 build/PROJECT/sketch.o
 .group         0x00000000       0x14 build/PROJECT/sketch.o
 .group         0x00000000       0x14 build/PROJECT/sketch.o
 .group         0x00000000       0x14 build/PROJECT/sketch.o
 .group         0x00000000       0x14 build/PROJECT/sketch.o
 .group         0x00000000       0x14 build/PROJECT/sketch.o
 .group         0x00000000       0x18 build/PROJECT/sketch.o
 .group         0x00000000       0x18 build/PROJECT/sketch.o
 .group         0x00000000       0x18 build/PROJECT/sketch.o
 .group         0x00000000       0x18 build/PROJECT/sketch.o
 .group         0x00000000       0x18 build/PROJECT/sketch.o
 .group         0x00000000       0x18 build/PROJECT/sketch.o
 .group         0x00000000       0x14 build/PROJECT/sketch.o
 .group         0x00000000       0x18 build/PROJECT/sketch.o
 .group         0x00000000       0x18 build/PROJECT/sketch.o
 .group         0x00000000       0x14 build/PROJECT/sketch.o
 .group         0x00000000       0x14 build/PROJECT/sketch.o
 .group         0x00000000       0x14 build/PROJECT/sketch.o
 .group         0x00000000       0x14 build/PROJECT/sketch.o
 .group         0x00000000       0x14 build/PROJECT/sketch.o
 .group         0x00000000       0x14 build/PROJECT/sketch.o
 .group         0x00000000       0x14 build/PROJECT/sketch.o
 .group         0x00000000       0x18 build/PROJECT/sketch.o
 .group         0x00000000       0x18 build/PROJECT/sketch.o
 .group         0x00000000       0x18 build/PROJECT/sketch.o
 .group         0x00000000       0x18 build/PROJECT/sketch.o
 .group         0x00000000       0x14 build/PROJECT/sketch.o
 .group         0x00000000       0x18 build/PROJECT/sketch.o
 .group         0x00000000       0x18 build/PROJECT/sketch.o
 .group         0x00000000       0x18 build/PROJECT/sketch.o
 .group         0x00000000       0x14 build/PROJECT/sketch.o
 .group         0x00000000       0x14 build/PROJECT/sketch.o
 .group         0x00000000       0x14 build/PROJECT/sketch.o
 .data          0x00000000        0x0 build/PROJECT/sketch.o
 .data          0x00000000        0x0 build/PROJECT/midiTime.o
 .bss           0x00000000        0x0 build/PROJECT/midiTime.o
 .group         0x00000000       0x18 build/PROJECT/BlinkerPanel.o
 .group         0x00000000       0x14 build/PROJECT/BlinkerPanel.o
 .group         0x00000000       0x14 build/PROJECT/BlinkerPanel.o
 .group         0x00000000       0x18 build/PROJECT/BlinkerPanel.o
 .group         0x00000000       0x18 build/PROJECT/BlinkerPanel.o
 .group         0x00000000        0xc build/PROJECT/BlinkerPanel.o
 .data          0x00000000        0x0 build/PROJECT/BlinkerPanel.o
 .bss           0x00000000        0x0 build/PROJECT/BlinkerPanel.o
 .group         0x00000000       0x18 build/PROJECT/StatusPanel.o
 .group         0x00000000       0x14 build/PROJECT/StatusPanel.o
 .group         0x00000000       0x14 build/PROJECT/StatusPanel.o
 .group         0x00000000       0x18 build/PROJECT/StatusPanel.o
 .group         0x00000000        0xc build/PROJECT/StatusPanel.o
 .data          0x00000000        0x0 build/PROJECT/StatusPanel.o
 .bss           0x00000000        0x0 build/PROJECT/StatusPanel.o
 .text._ZN14PanelComponentC2Ev
                0x00000000       0x20 build/PROJECT/StatusPanel.o
 .ARM.extab.text._ZN14PanelComponentC2Ev
                0x00000000        0x0 build/PROJECT/StatusPanel.o
 .ARM.exidx.text._ZN14PanelComponentC2Ev
                0x00000000        0x8 build/PROJECT/StatusPanel.o
 .text._ZN14PanelComponent12hasFreshDataEv
                0x00000000       0x16 build/PROJECT/StatusPanel.o
 .ARM.extab.text._ZN14PanelComponent12hasFreshDataEv
                0x00000000        0x0 build/PROJECT/StatusPanel.o
 .ARM.exidx.text._ZN14PanelComponent12hasFreshDataEv
                0x00000000        0x8 build/PROJECT/StatusPanel.o
 .text._ZN14PanelComponent7freshenEt
                0x00000000       0x18 build/PROJECT/StatusPanel.o
 .ARM.extab.text._ZN14PanelComponent7freshenEt
                0x00000000        0x0 build/PROJECT/StatusPanel.o
 .ARM.exidx.text._ZN14PanelComponent7freshenEt
                0x00000000        0x8 build/PROJECT/StatusPanel.o
 .text._ZN3LedC2Ev
                0x00000000       0x2c build/PROJECT/StatusPanel.o
 .ARM.extab.text._ZN3LedC2Ev
                0x00000000        0x0 build/PROJECT/StatusPanel.o
 .ARM.exidx.text._ZN3LedC2Ev
                0x00000000        0x8 build/PROJECT/StatusPanel.o
 .rodata._ZTV14PanelComponent
                0x00000000       0x10 build/PROJECT/StatusPanel.o
 .bss           0x00000000        0x0 build/PROJECT/SegmentVideo.o
 .data          0x00000000        0x0 build/ARDUINO/flagMessaging.o
 .bss           0x00000000        0x0 build/ARDUINO/flagMessaging.o
 .ARM.extab     0x00000000        0x0 build/ARDUINO/flagMessaging.o
 .group         0x00000000       0x14 build/ARDUINO/HardwareInterfaces.o
 .group         0x00000000       0x14 build/ARDUINO/HardwareInterfaces.o
 .group         0x00000000       0x18 build/ARDUINO/HardwareInterfaces.o
 .group         0x00000000        0xc build/ARDUINO/HardwareInterfaces.o
 .data          0x00000000        0x0 build/ARDUINO/HardwareInterfaces.o
 .bss           0x00000000        0x0 build/ARDUINO/HardwareInterfaces.o
 .group         0x00000000       0x14 build/ARDUINO/Panel.o
 .data          0x00000000        0x0 build/ARDUINO/Panel.o
 .bss           0x00000000        0x0 build/ARDUINO/Panel.o
 .group         0x00000000       0x18 build/ARDUINO/PanelComponents.o
 .group         0x00000000       0x18 build/ARDUINO/PanelComponents.o
 .group         0x00000000       0x18 build/ARDUINO/PanelComponents.o
 .group         0x00000000       0x14 build/ARDUINO/PanelComponents.o
 .group         0x00000000       0x14 build/ARDUINO/PanelComponents.o
 .group         0x00000000       0x14 build/ARDUINO/PanelComponents.o
 .group         0x00000000       0x18 build/ARDUINO/PanelComponents.o
 .group         0x00000000       0x18 build/ARDUINO/PanelComponents.o
 .group         0x00000000       0x14 build/ARDUINO/PanelComponents.o
 .group         0x00000000       0x14 build/ARDUINO/PanelComponents.o
 .group         0x00000000        0xc build/ARDUINO/PanelComponents.o
 .text._ZN14PanelComponentC2Ev
                0x00000000       0x20 build/ARDUINO/PanelComponents.o
 .ARM.extab.text._ZN14PanelComponentC2Ev
                0x00000000        0x0 build/ARDUINO/PanelComponents.o
 .ARM.exidx.text._ZN14PanelComponentC2Ev
                0x00000000        0x8 build/ARDUINO/PanelComponents.o
 .text._ZN14PanelComponent12hasFreshDataEv
                0x00000000       0x16 build/ARDUINO/PanelComponents.o
 .ARM.extab.text._ZN14PanelComponent12hasFreshDataEv
                0x00000000        0x0 build/ARDUINO/PanelComponents.o
 .ARM.exidx.text._ZN14PanelComponent12hasFreshDataEv
                0x00000000        0x8 build/ARDUINO/PanelComponents.o
 .text._ZN14PanelComponent7freshenEt
                0x00000000       0x18 build/ARDUINO/PanelComponents.o
 .ARM.extab.text._ZN14PanelComponent7freshenEt
                0x00000000        0x0 build/ARDUINO/PanelComponents.o
 .ARM.exidx.text._ZN14PanelComponent7freshenEt
                0x00000000        0x8 build/ARDUINO/PanelComponents.o
 .rodata._ZTV14PanelComponent
                0x00000000       0x10 build/ARDUINO/PanelComponents.o
 .data          0x00000000        0x0 build/ARDUINO/PanelDataObjects.o
 .bss           0x00000000        0x0 build/ARDUINO/PanelDataObjects.o
 .data          0x00000000        0x0 build/ARDUINO/timeKeeper.o
 .bss           0x00000000        0x0 build/ARDUINO/timeKeeper.o
 .ARM.extab     0x00000000        0x0 build/ARDUINO/timeKeeper.o
 .data          0x00000000        0x0 build/ARDUINO/timeKeeper32.o
 .bss           0x00000000        0x0 build/ARDUINO/timeKeeper32.o
 .ARM.extab     0x00000000        0x0 build/ARDUINO/timeKeeper32.o
 .text          0x00000000       0xe4 build/ARDUINO/timerModule.o
 .data          0x00000000        0x0 build/ARDUINO/timerModule.o
 .bss           0x00000000        0x0 build/ARDUINO/timerModule.o
 .ARM.extab     0x00000000        0x0 build/ARDUINO/timerModule.o
 .ARM.exidx     0x00000000       0x20 build/ARDUINO/timerModule.o
 .debug_info    0x00000000      0x25e build/ARDUINO/timerModule.o
 .debug_abbrev  0x00000000      0x158 build/ARDUINO/timerModule.o
 .debug_aranges
                0x00000000       0x20 build/ARDUINO/timerModule.o
 .debug_line    0x00000000      0x114 build/ARDUINO/timerModule.o
 .debug_str     0x00000000      0x2ac build/ARDUINO/timerModule.o
 .comment       0x00000000       0x80 build/ARDUINO/timerModule.o
 .debug_frame   0x00000000       0xb0 build/ARDUINO/timerModule.o
 .ARM.attributes
                0x00000000       0x39 build/ARDUINO/timerModule.o
 .data          0x00000000        0x0 build/ARDUINO/timerModule32.o
 .bss           0x00000000        0x0 build/ARDUINO/timerModule32.o
 .ARM.extab     0x00000000        0x0 build/ARDUINO/timerModule32.o
 .text          0x00000000      0x144 build/ARDUINO/MIDI.o
 .data          0x00000000        0x0 build/ARDUINO/MIDI.o
 .bss           0x00000000        0x0 build/ARDUINO/MIDI.o
 .ARM.extab     0x00000000        0x0 build/ARDUINO/MIDI.o
 .ARM.exidx     0x00000000       0x10 build/ARDUINO/MIDI.o
 .debug_info    0x00000000      0x237 build/ARDUINO/MIDI.o
 .debug_abbrev  0x00000000       0xdb build/ARDUINO/MIDI.o
 .debug_aranges
                0x00000000       0x20 build/ARDUINO/MIDI.o
 .debug_line    0x00000000      0x166 build/ARDUINO/MIDI.o
 .debug_str     0x00000000      0x24e build/ARDUINO/MIDI.o
 .comment       0x00000000       0x80 build/ARDUINO/MIDI.o
 .debug_frame   0x00000000       0x60 build/ARDUINO/MIDI.o
 .ARM.attributes
                0x00000000       0x39 build/ARDUINO/MIDI.o
 .data          0x00000000        0x0 build/ARDUINO/interface.o
 .data          0x00000000        0x0 build/ARDUINO/abi.o
 .bss           0x00000000        0x0 build/ARDUINO/abi.o
 .ARM.extab     0x00000000        0x0 build/ARDUINO/abi.o
 .data          0x00000000        0x0 build/ARDUINO/GPIO.o
 .bss           0x00000000        0x0 build/ARDUINO/GPIO.o
 .data          0x00000000        0x0 build/ARDUINO/ADC.o
 .bss           0x00000000        0x0 build/ARDUINO/ADC.o
 .ARM.extab     0x00000000        0x0 build/ARDUINO/ADC.o
 .group         0x00000000       0x18 build/ARDUINO/HardwareSerial.o
 .group         0x00000000       0x18 build/ARDUINO/HardwareSerial.o
 .group         0x00000000        0xc build/ARDUINO/HardwareSerial.o
 .data          0x00000000        0x0 build/ARDUINO/HardwareSerial.o
 .bss           0x00000000        0x0 build/ARDUINO/HardwareSerial.o
 .text          0x00000000        0x0 build/ARDUINO/STM_ArduinoPins.o
 .data          0x00000000        0x0 build/ARDUINO/STM_ArduinoPins.o
 .bss           0x00000000        0x0 build/ARDUINO/STM_ArduinoPins.o
 .rodata        0x00000000      0x120 build/ARDUINO/STM_ArduinoPins.o
 .debug_info    0x00000000      0xa3b build/ARDUINO/STM_ArduinoPins.o
 .debug_abbrev  0x00000000      0x1c9 build/ARDUINO/STM_ArduinoPins.o
 .debug_aranges
                0x00000000       0x18 build/ARDUINO/STM_ArduinoPins.o
 .debug_line    0x00000000      0x212 build/ARDUINO/STM_ArduinoPins.o
 .debug_str     0x00000000      0x708 build/ARDUINO/STM_ArduinoPins.o
 .comment       0x00000000       0x80 build/ARDUINO/STM_ArduinoPins.o
 .ARM.attributes
                0x00000000       0x39 build/ARDUINO/STM_ArduinoPins.o
 .text          0x00000000      0x1e4 build/ARDUINO/itoa.o
 .data          0x00000000        0x0 build/ARDUINO/itoa.o
 .bss           0x00000000        0x0 build/ARDUINO/itoa.o
 .debug_info    0x00000000      0xa45 build/ARDUINO/itoa.o
 .debug_abbrev  0x00000000      0x1fd build/ARDUINO/itoa.o
 .debug_aranges
                0x00000000       0x20 build/ARDUINO/itoa.o
 .debug_line    0x00000000      0x160 build/ARDUINO/itoa.o
 .debug_str     0x00000000      0x56b build/ARDUINO/itoa.o
 .comment       0x00000000       0x80 build/ARDUINO/itoa.o
 .debug_frame   0x00000000       0xa8 build/ARDUINO/itoa.o
 .ARM.attributes
                0x00000000       0x39 build/ARDUINO/itoa.o
 .group         0x00000000       0x18 build/ARDUINO/Print.o
 .group         0x00000000       0x18 build/ARDUINO/Print.o
 .group         0x00000000       0x14 build/ARDUINO/Print.o
 .group         0x00000000       0x14 build/ARDUINO/Print.o
 .group         0x00000000       0x18 build/ARDUINO/Print.o
 .group         0x00000000       0x14 build/ARDUINO/Print.o
 .data          0x00000000        0x0 build/ARDUINO/Print.o
 .bss           0x00000000        0x0 build/ARDUINO/Print.o
 .group         0x00000000       0x18 build/ARDUINO/Stream.o
 .text          0x00000000      0x760 build/ARDUINO/Stream.o
 .data          0x00000000        0x0 build/ARDUINO/Stream.o
 .bss           0x00000000        0x0 build/ARDUINO/Stream.o
 .text._ZN6StringpLEc
                0x00000000       0x20 build/ARDUINO/Stream.o
 .ARM.extab.text._ZN6StringpLEc
                0x00000000        0xc build/ARDUINO/Stream.o
 .ARM.exidx.text._ZN6StringpLEc
                0x00000000        0x8 build/ARDUINO/Stream.o
 .ARM.extab     0x00000000       0xc8 build/ARDUINO/Stream.o
 .ARM.exidx     0x00000000       0x78 build/ARDUINO/Stream.o
 .rodata        0x00000000        0x1 build/ARDUINO/Stream.o
 .debug_info    0x00000000     0x2e31 build/ARDUINO/Stream.o
 .debug_abbrev  0x00000000      0x517 build/ARDUINO/Stream.o
 .debug_aranges
                0x00000000       0x28 build/ARDUINO/Stream.o
 .debug_ranges  0x00000000       0x30 build/ARDUINO/Stream.o
 .debug_line    0x00000000      0x533 build/ARDUINO/Stream.o
 .debug_str     0x00000000     0x1c3d build/ARDUINO/Stream.o
 .comment       0x00000000       0x80 build/ARDUINO/Stream.o
 .debug_frame   0x00000000      0x25c build/ARDUINO/Stream.o
 .ARM.attributes
                0x00000000       0x39 build/ARDUINO/Stream.o
 .group         0x00000000       0x14 build/ARDUINO/WString.o
 .group         0x00000000       0x18 build/ARDUINO/WString.o
 .group         0x00000000       0x14 build/ARDUINO/WString.o
 .text          0x00000000     0x15a0 build/ARDUINO/WString.o
 .data          0x00000000        0x0 build/ARDUINO/WString.o
 .bss           0x00000000        0x1 build/ARDUINO/WString.o
 .text._ZNK6String14StringIfHelperEv
                0x00000000       0x14 build/ARDUINO/WString.o
 .ARM.extab.text._ZNK6String14StringIfHelperEv
                0x00000000        0x0 build/ARDUINO/WString.o
 .ARM.exidx.text._ZNK6String14StringIfHelperEv
                0x00000000        0x8 build/ARDUINO/WString.o
 .text._ZNK6StringcvMS_KFvvEEv
                0x00000000       0x3c build/ARDUINO/WString.o
 .ARM.extab.text._ZNK6StringcvMS_KFvvEEv
                0x00000000        0x0 build/ARDUINO/WString.o
 .ARM.exidx.text._ZNK6StringcvMS_KFvvEEv
                0x00000000        0x8 build/ARDUINO/WString.o
 .ARM.extab     0x00000000       0xf0 build/ARDUINO/WString.o
 .ARM.exidx     0x00000000      0x298 build/ARDUINO/WString.o
 .text._ZN6String4initEv
                0x00000000       0x26 build/ARDUINO/WString.o
 .ARM.extab.text._ZN6String4initEv
                0x00000000        0x0 build/ARDUINO/WString.o
 .ARM.exidx.text._ZN6String4initEv
                0x00000000        0x8 build/ARDUINO/WString.o
 .rodata        0x00000000        0x1 build/ARDUINO/WString.o
 .debug_info    0x00000000     0x3873 build/ARDUINO/WString.o
 .debug_abbrev  0x00000000      0x53e build/ARDUINO/WString.o
 .debug_aranges
                0x00000000       0x38 build/ARDUINO/WString.o
 .debug_ranges  0x00000000       0x40 build/ARDUINO/WString.o
 .debug_line    0x00000000      0x6e7 build/ARDUINO/WString.o
 .debug_str     0x00000000     0x1525 build/ARDUINO/WString.o
 .comment       0x00000000       0x80 build/ARDUINO/WString.o
 .debug_frame   0x00000000      0xc60 build/ARDUINO/WString.o
 .ARM.attributes
                0x00000000       0x39 build/ARDUINO/WString.o
 .text          0x00000000        0x0 build/ARDUINO/STM_ArduinoPins.o
 .data          0x00000000        0x0 build/ARDUINO/STM_ArduinoPins.o
 .bss           0x00000000        0x0 build/ARDUINO/STM_ArduinoPins.o
 .rodata        0x00000000      0x120 build/ARDUINO/STM_ArduinoPins.o
 .debug_info    0x00000000      0xa3b build/ARDUINO/STM_ArduinoPins.o
 .debug_abbrev  0x00000000      0x1c9 build/ARDUINO/STM_ArduinoPins.o
 .debug_aranges
                0x00000000       0x18 build/ARDUINO/STM_ArduinoPins.o
 .debug_line    0x00000000      0x212 build/ARDUINO/STM_ArduinoPins.o
 .debug_str     0x00000000      0x708 build/ARDUINO/STM_ArduinoPins.o
 .comment       0x00000000       0x80 build/ARDUINO/STM_ArduinoPins.o
 .ARM.attributes
                0x00000000       0x39 build/ARDUINO/STM_ArduinoPins.o
 .data          0x00000000        0x0 build/HAL/main.o
 .bss           0x00000000        0x0 build/HAL/main.o
 .data          0x00000000        0x0 build/HAL/gpio.o
 .bss           0x00000000        0x0 build/HAL/gpio.o
 .data          0x00000000        0x0 build/HAL/adc.o
 .bss           0x00000000        0x0 build/HAL/adc.o
 .data          0x00000000        0x0 build/HAL/adc_ext.o
 .bss           0x00000000        0x0 build/HAL/adc_ext.o
 .data          0x00000000        0x0 build/HAL/debugPins.o
 .bss           0x00000000        0x0 build/HAL/debugPins.o
 .data          0x00000000        0x0 build/HAL/display_clock.o
 .data          0x00000000        0x0 build/HAL/dma.o
 .bss           0x00000000        0x0 build/HAL/dma.o
 .data          0x00000000        0x0 build/HAL/spi.o
 .bss           0x00000000        0x0 build/HAL/spi.o
 .data          0x00000000        0x0 build/HAL/usart.o
 .bss           0x00000000        0x0 build/HAL/usart.o
 .data          0x00000000        0x0 build/HAL/stm32f4xx_it.o
 .bss           0x00000000        0x0 build/HAL/stm32f4xx_it.o
 .data          0x00000000        0x0 build/HAL/stm32f4xx_hal_msp.o
 .bss           0x00000000        0x0 build/HAL/stm32f4xx_hal_msp.o
 .data          0x00000000        0x0 build/HAL/unused_int.o
 .bss           0x00000000        0x0 build/HAL/unused_int.o
 .data          0x00000000        0x0 build/HAL/stm32f4xx_hal_adc.o
 .bss           0x00000000        0x0 build/HAL/stm32f4xx_hal_adc.o
 .data          0x00000000        0x0 build/HAL/stm32f4xx_hal_adc_ex.o
 .bss           0x00000000        0x0 build/HAL/stm32f4xx_hal_adc_ex.o
 .data          0x00000000        0x0 build/HAL/stm32f4xx_hal_spi.o
 .bss           0x00000000        0x0 build/HAL/stm32f4xx_hal_spi.o
 .data          0x00000000        0x0 build/HAL/stm32f4xx_hal_tim.o
 .bss           0x00000000        0x0 build/HAL/stm32f4xx_hal_tim.o
 .data          0x00000000        0x0 build/HAL/stm32f4xx_hal_tim_ex.o
 .bss           0x00000000        0x0 build/HAL/stm32f4xx_hal_tim_ex.o
 .data          0x00000000        0x0 build/HAL/stm32f4xx_hal_uart.o
 .bss           0x00000000        0x0 build/HAL/stm32f4xx_hal_uart.o
 .data          0x00000000        0x0 build/HAL/stm32f4xx_hal_rcc.o
 .bss           0x00000000        0x0 build/HAL/stm32f4xx_hal_rcc.o
 .data          0x00000000        0x0 build/HAL/stm32f4xx_hal_rcc_ex.o
 .bss           0x00000000        0x0 build/HAL/stm32f4xx_hal_rcc_ex.o
 .text          0x00000000      0x620 build/HAL/stm32f4xx_hal_flash.o
 .data          0x00000000        0x0 build/HAL/stm32f4xx_hal_flash.o
 .bss           0x00000000        0x0 build/HAL/stm32f4xx_hal_flash.o
 .debug_info    0x00000000      0xdd1 build/HAL/stm32f4xx_hal_flash.o
 .debug_abbrev  0x00000000      0x319 build/HAL/stm32f4xx_hal_flash.o
 .debug_aranges
                0x00000000       0x20 build/HAL/stm32f4xx_hal_flash.o
 .debug_line    0x00000000      0x36b build/HAL/stm32f4xx_hal_flash.o
 .debug_str     0x00000000      0x91a build/HAL/stm32f4xx_hal_flash.o
 .comment       0x00000000       0x80 build/HAL/stm32f4xx_hal_flash.o
 .debug_frame   0x00000000      0x274 build/HAL/stm32f4xx_hal_flash.o
 .ARM.attributes
                0x00000000       0x39 build/HAL/stm32f4xx_hal_flash.o
 COMMON         0x00000000       0x20 build/HAL/stm32f4xx_hal_flash.o
 .text          0x00000000      0x750 build/HAL/stm32f4xx_hal_flash_ex.o
 .data          0x00000000        0x0 build/HAL/stm32f4xx_hal_flash_ex.o
 .bss           0x00000000        0x0 build/HAL/stm32f4xx_hal_flash_ex.o
 .debug_info    0x00000000     0x1050 build/HAL/stm32f4xx_hal_flash_ex.o
 .debug_abbrev  0x00000000      0x308 build/HAL/stm32f4xx_hal_flash_ex.o
 .debug_aranges
                0x00000000       0x20 build/HAL/stm32f4xx_hal_flash_ex.o
 .debug_line    0x00000000      0x3c8 build/HAL/stm32f4xx_hal_flash_ex.o
 .debug_str     0x00000000      0xa59 build/HAL/stm32f4xx_hal_flash_ex.o
 .comment       0x00000000       0x80 build/HAL/stm32f4xx_hal_flash_ex.o
 .debug_frame   0x00000000      0x334 build/HAL/stm32f4xx_hal_flash_ex.o
 .ARM.attributes
                0x00000000       0x39 build/HAL/stm32f4xx_hal_flash_ex.o
 .text          0x00000000        0x0 build/HAL/stm32f4xx_hal_flash_ramfunc.o
 .data          0x00000000        0x0 build/HAL/stm32f4xx_hal_flash_ramfunc.o
 .bss           0x00000000        0x0 build/HAL/stm32f4xx_hal_flash_ramfunc.o
 .RamFunc       0x00000000      0x110 build/HAL/stm32f4xx_hal_flash_ramfunc.o
 .debug_info    0x00000000      0xc40 build/HAL/stm32f4xx_hal_flash_ramfunc.o
 .debug_abbrev  0x00000000      0x20d build/HAL/stm32f4xx_hal_flash_ramfunc.o
 .debug_aranges
                0x00000000       0x38 build/HAL/stm32f4xx_hal_flash_ramfunc.o
 .debug_ranges  0x00000000       0x28 build/HAL/stm32f4xx_hal_flash_ramfunc.o
 .debug_line    0x00000000      0x26c build/HAL/stm32f4xx_hal_flash_ramfunc.o
 .debug_str     0x00000000      0x7db build/HAL/stm32f4xx_hal_flash_ramfunc.o
 .comment       0x00000000       0x80 build/HAL/stm32f4xx_hal_flash_ramfunc.o
 .debug_frame   0x00000000       0xb0 build/HAL/stm32f4xx_hal_flash_ramfunc.o
 .ARM.attributes
                0x00000000       0x39 build/HAL/stm32f4xx_hal_flash_ramfunc.o
 .data          0x00000000        0x0 build/HAL/stm32f4xx_hal_gpio.o
 .bss           0x00000000        0x0 build/HAL/stm32f4xx_hal_gpio.o
 .text          0x00000000     0x13a8 build/HAL/stm32f4xx_hal_dma_ex.o
 .data          0x00000000        0x0 build/HAL/stm32f4xx_hal_dma_ex.o
 .bss           0x00000000        0x0 build/HAL/stm32f4xx_hal_dma_ex.o
 .debug_info    0x00000000      0xda1 build/HAL/stm32f4xx_hal_dma_ex.o
 .debug_abbrev  0x00000000      0x256 build/HAL/stm32f4xx_hal_dma_ex.o
 .debug_aranges
                0x00000000       0x20 build/HAL/stm32f4xx_hal_dma_ex.o
 .debug_line    0x00000000      0xde5 build/HAL/stm32f4xx_hal_dma_ex.o
 .debug_str     0x00000000      0x962 build/HAL/stm32f4xx_hal_dma_ex.o
 .comment       0x00000000       0x80 build/HAL/stm32f4xx_hal_dma_ex.o
 .debug_frame   0x00000000       0xac build/HAL/stm32f4xx_hal_dma_ex.o
 .ARM.attributes
                0x00000000       0x39 build/HAL/stm32f4xx_hal_dma_ex.o
 .data          0x00000000        0x0 build/HAL/stm32f4xx_hal_dma.o
 .bss           0x00000000        0x0 build/HAL/stm32f4xx_hal_dma.o
 .text          0x00000000      0x308 build/HAL/stm32f4xx_hal_pwr.o
 .data          0x00000000        0x0 build/HAL/stm32f4xx_hal_pwr.o
 .bss           0x00000000        0x0 build/HAL/stm32f4xx_hal_pwr.o
 .debug_info    0x00000000     0x1019 build/HAL/stm32f4xx_hal_pwr.o
 .debug_abbrev  0x00000000      0x257 build/HAL/stm32f4xx_hal_pwr.o
 .debug_aranges
                0x00000000       0x20 build/HAL/stm32f4xx_hal_pwr.o
 .debug_line    0x00000000      0x2f1 build/HAL/stm32f4xx_hal_pwr.o
 .debug_str     0x00000000      0x975 build/HAL/stm32f4xx_hal_pwr.o
 .comment       0x00000000       0x80 build/HAL/stm32f4xx_hal_pwr.o
 .debug_frame   0x00000000      0x254 build/HAL/stm32f4xx_hal_pwr.o
 .ARM.attributes
                0x00000000       0x39 build/HAL/stm32f4xx_hal_pwr.o
 .data          0x00000000        0x0 build/HAL/stm32f4xx_hal_pwr_ex.o
 .bss           0x00000000        0x0 build/HAL/stm32f4xx_hal_pwr_ex.o
 .data          0x00000000        0x0 build/HAL/stm32f4xx_hal_cortex.o
 .bss           0x00000000        0x0 build/HAL/stm32f4xx_hal_cortex.o
 .bss           0x00000000        0x0 build/HAL/stm32f4xx_hal.o
 .bss           0x00000000        0x0 build/HAL/system_stm32f4xx.o
 .text          0x00000000       0x14 build/HAL/startup_stm32f446xx.o
 .data          0x00000000        0x0 build/HAL/startup_stm32f446xx.o
 .bss           0x00000000        0x0 build/HAL/startup_stm32f446xx.o
 .text          0x00000000        0x0 c:/stm32/gcc-arm-none-eabi/bin/../lib/gcc/arm-none-eabi/7.3.1/../../../../arm-none-eabi/lib/thumb/v7e-m/fpv4-sp/hard\libstdc++_nano.a(new_op.o)
 .data          0x00000000        0x0 c:/stm32/gcc-arm-none-eabi/bin/../lib/gcc/arm-none-eabi/7.3.1/../../../../arm-none-eabi/lib/thumb/v7e-m/fpv4-sp/hard\libstdc++_nano.a(new_op.o)
 .bss           0x00000000        0x0 c:/stm32/gcc-arm-none-eabi/bin/../lib/gcc/arm-none-eabi/7.3.1/../../../../arm-none-eabi/lib/thumb/v7e-m/fpv4-sp/hard\libstdc++_nano.a(new_op.o)
 .text          0x00000000        0x0 c:/stm32/gcc-arm-none-eabi/bin/../lib/gcc/arm-none-eabi/7.3.1/../../../../arm-none-eabi/lib/thumb/v7e-m/fpv4-sp/hard\libstdc++_nano.a(del_op.o)
 .data          0x00000000        0x0 c:/stm32/gcc-arm-none-eabi/bin/../lib/gcc/arm-none-eabi/7.3.1/../../../../arm-none-eabi/lib/thumb/v7e-m/fpv4-sp/hard\libstdc++_nano.a(del_op.o)
 .bss           0x00000000        0x0 c:/stm32/gcc-arm-none-eabi/bin/../lib/gcc/arm-none-eabi/7.3.1/../../../../arm-none-eabi/lib/thumb/v7e-m/fpv4-sp/hard\libstdc++_nano.a(del_op.o)
 .text          0x00000000        0x0 c:/stm32/gcc-arm-none-eabi/bin/../lib/gcc/arm-none-eabi/7.3.1/../../../../arm-none-eabi/lib/thumb/v7e-m/fpv4-sp/hard\libstdc++_nano.a(eh_personality.o)
 .data          0x00000000        0x0 c:/stm32/gcc-arm-none-eabi/bin/../lib/gcc/arm-none-eabi/7.3.1/../../../../arm-none-eabi/lib/thumb/v7e-m/fpv4-sp/hard\libstdc++_nano.a(eh_personality.o)
 .bss           0x00000000        0x0 c:/stm32/gcc-arm-none-eabi/bin/../lib/gcc/arm-none-eabi/7.3.1/../../../../arm-none-eabi/lib/thumb/v7e-m/fpv4-sp/hard\libstdc++_nano.a(eh_personality.o)
 .debug_frame   0x00000000      0x130 c:/stm32/gcc-arm-none-eabi/bin/../lib/gcc/arm-none-eabi/7.3.1/../../../../arm-none-eabi/lib/thumb/v7e-m/fpv4-sp/hard\libstdc++_nano.a(eh_personality.o)
 .ARM.attributes
                0x00000000       0x34 c:/stm32/gcc-arm-none-eabi/bin/../lib/gcc/arm-none-eabi/7.3.1/../../../../arm-none-eabi/lib/thumb/v7e-m/fpv4-sp/hard\libstdc++_nano.a(eh_personality.o)
 .text          0x00000000        0x0 c:/stm32/gcc-arm-none-eabi/bin/../lib/gcc/arm-none-eabi/7.3.1/../../../../arm-none-eabi/lib/thumb/v7e-m/fpv4-sp/hard\libstdc++_nano.a(eh_call.o)
 .data          0x00000000        0x0 c:/stm32/gcc-arm-none-eabi/bin/../lib/gcc/arm-none-eabi/7.3.1/../../../../arm-none-eabi/lib/thumb/v7e-m/fpv4-sp/hard\libstdc++_nano.a(eh_call.o)
 .bss           0x00000000        0x0 c:/stm32/gcc-arm-none-eabi/bin/../lib/gcc/arm-none-eabi/7.3.1/../../../../arm-none-eabi/lib/thumb/v7e-m/fpv4-sp/hard\libstdc++_nano.a(eh_call.o)
 .text          0x00000000        0x0 c:/stm32/gcc-arm-none-eabi/bin/../lib/gcc/arm-none-eabi/7.3.1/../../../../arm-none-eabi/lib/thumb/v7e-m/fpv4-sp/hard\libstdc++_nano.a(eh_aux_runtime.o)
 .data          0x00000000        0x0 c:/stm32/gcc-arm-none-eabi/bin/../lib/gcc/arm-none-eabi/7.3.1/../../../../arm-none-eabi/lib/thumb/v7e-m/fpv4-sp/hard\libstdc++_nano.a(eh_aux_runtime.o)
 .bss           0x00000000        0x0 c:/stm32/gcc-arm-none-eabi/bin/../lib/gcc/arm-none-eabi/7.3.1/../../../../arm-none-eabi/lib/thumb/v7e-m/fpv4-sp/hard\libstdc++_nano.a(eh_aux_runtime.o)
 .text.__cxa_bad_cast
                0x00000000        0x6 c:/stm32/gcc-arm-none-eabi/bin/../lib/gcc/arm-none-eabi/7.3.1/../../../../arm-none-eabi/lib/thumb/v7e-m/fpv4-sp/hard\libstdc++_nano.a(eh_aux_runtime.o)
 .text.__cxa_bad_typeid
                0x00000000        0x6 c:/stm32/gcc-arm-none-eabi/bin/../lib/gcc/arm-none-eabi/7.3.1/../../../../arm-none-eabi/lib/thumb/v7e-m/fpv4-sp/hard\libstdc++_nano.a(eh_aux_runtime.o)
 .text          0x00000000        0x0 c:/stm32/gcc-arm-none-eabi/bin/../lib/gcc/arm-none-eabi/7.3.1/../../../../arm-none-eabi/lib/thumb/v7e-m/fpv4-sp/hard\libstdc++_nano.a(del_opv.o)
 .data          0x00000000        0x0 c:/stm32/gcc-arm-none-eabi/bin/../lib/gcc/arm-none-eabi/7.3.1/../../../../arm-none-eabi/lib/thumb/v7e-m/fpv4-sp/hard\libstdc++_nano.a(del_opv.o)
 .bss           0x00000000        0x0 c:/stm32/gcc-arm-none-eabi/bin/../lib/gcc/arm-none-eabi/7.3.1/../../../../arm-none-eabi/lib/thumb/v7e-m/fpv4-sp/hard\libstdc++_nano.a(del_opv.o)
 .text          0x00000000        0x0 c:/stm32/gcc-arm-none-eabi/bin/../lib/gcc/arm-none-eabi/7.3.1/../../../../arm-none-eabi/lib/thumb/v7e-m/fpv4-sp/hard\libstdc++_nano.a(new_handler.o)
 .data          0x00000000        0x0 c:/stm32/gcc-arm-none-eabi/bin/../lib/gcc/arm-none-eabi/7.3.1/../../../../arm-none-eabi/lib/thumb/v7e-m/fpv4-sp/hard\libstdc++_nano.a(new_handler.o)
 .bss           0x00000000        0x0 c:/stm32/gcc-arm-none-eabi/bin/../lib/gcc/arm-none-eabi/7.3.1/../../../../arm-none-eabi/lib/thumb/v7e-m/fpv4-sp/hard\libstdc++_nano.a(new_handler.o)
 .text._ZSt15set_new_handlerPFvvE
                0x00000000       0x20 c:/stm32/gcc-arm-none-eabi/bin/../lib/gcc/arm-none-eabi/7.3.1/../../../../arm-none-eabi/lib/thumb/v7e-m/fpv4-sp/hard\libstdc++_nano.a(new_handler.o)
 .rodata._ZSt7nothrow
                0x00000000        0x1 c:/stm32/gcc-arm-none-eabi/bin/../lib/gcc/arm-none-eabi/7.3.1/../../../../arm-none-eabi/lib/thumb/v7e-m/fpv4-sp/hard\libstdc++_nano.a(new_handler.o)
 .text          0x00000000        0x0 c:/stm32/gcc-arm-none-eabi/bin/../lib/gcc/arm-none-eabi/7.3.1/../../../../arm-none-eabi/lib/thumb/v7e-m/fpv4-sp/hard\libstdc++_nano.a(eh_catch.o)
 .data          0x00000000        0x0 c:/stm32/gcc-arm-none-eabi/bin/../lib/gcc/arm-none-eabi/7.3.1/../../../../arm-none-eabi/lib/thumb/v7e-m/fpv4-sp/hard\libstdc++_nano.a(eh_catch.o)
 .bss           0x00000000        0x0 c:/stm32/gcc-arm-none-eabi/bin/../lib/gcc/arm-none-eabi/7.3.1/../../../../arm-none-eabi/lib/thumb/v7e-m/fpv4-sp/hard\libstdc++_nano.a(eh_catch.o)
 .text.__cxa_get_exception_ptr
                0x00000000        0x4 c:/stm32/gcc-arm-none-eabi/bin/../lib/gcc/arm-none-eabi/7.3.1/../../../../arm-none-eabi/lib/thumb/v7e-m/fpv4-sp/hard\libstdc++_nano.a(eh_catch.o)
 .text.__cxa_end_catch
                0x00000000       0x48 c:/stm32/gcc-arm-none-eabi/bin/../lib/gcc/arm-none-eabi/7.3.1/../../../../arm-none-eabi/lib/thumb/v7e-m/fpv4-sp/hard\libstdc++_nano.a(eh_catch.o)
 .text._ZSt18uncaught_exceptionv
                0x00000000        0x4 c:/stm32/gcc-arm-none-eabi/bin/../lib/gcc/arm-none-eabi/7.3.1/../../../../arm-none-eabi/lib/thumb/v7e-m/fpv4-sp/hard\libstdc++_nano.a(eh_catch.o)
 .text._ZSt19uncaught_exceptionsv
                0x00000000        0x4 c:/stm32/gcc-arm-none-eabi/bin/../lib/gcc/arm-none-eabi/7.3.1/../../../../arm-none-eabi/lib/thumb/v7e-m/fpv4-sp/hard\libstdc++_nano.a(eh_catch.o)
 .text          0x00000000        0x0 c:/stm32/gcc-arm-none-eabi/bin/../lib/gcc/arm-none-eabi/7.3.1/../../../../arm-none-eabi/lib/thumb/v7e-m/fpv4-sp/hard\libstdc++_nano.a(eh_globals.o)
 .data          0x00000000        0x0 c:/stm32/gcc-arm-none-eabi/bin/../lib/gcc/arm-none-eabi/7.3.1/../../../../arm-none-eabi/lib/thumb/v7e-m/fpv4-sp/hard\libstdc++_nano.a(eh_globals.o)
 .bss           0x00000000        0x0 c:/stm32/gcc-arm-none-eabi/bin/../lib/gcc/arm-none-eabi/7.3.1/../../../../arm-none-eabi/lib/thumb/v7e-m/fpv4-sp/hard\libstdc++_nano.a(eh_globals.o)
 .text.__cxa_get_globals_fast
                0x00000000        0x8 c:/stm32/gcc-arm-none-eabi/bin/../lib/gcc/arm-none-eabi/7.3.1/../../../../arm-none-eabi/lib/thumb/v7e-m/fpv4-sp/hard\libstdc++_nano.a(eh_globals.o)
 .text          0x00000000        0x0 c:/stm32/gcc-arm-none-eabi/bin/../lib/gcc/arm-none-eabi/7.3.1/../../../../arm-none-eabi/lib/thumb/v7e-m/fpv4-sp/hard\libstdc++_nano.a(eh_terminate.o)
 .data          0x00000000        0x0 c:/stm32/gcc-arm-none-eabi/bin/../lib/gcc/arm-none-eabi/7.3.1/../../../../arm-none-eabi/lib/thumb/v7e-m/fpv4-sp/hard\libstdc++_nano.a(eh_terminate.o)
 .bss           0x00000000        0x0 c:/stm32/gcc-arm-none-eabi/bin/../lib/gcc/arm-none-eabi/7.3.1/../../../../arm-none-eabi/lib/thumb/v7e-m/fpv4-sp/hard\libstdc++_nano.a(eh_terminate.o)
 .text._ZSt13set_terminatePFvvE
                0x00000000       0x20 c:/stm32/gcc-arm-none-eabi/bin/../lib/gcc/arm-none-eabi/7.3.1/../../../../arm-none-eabi/lib/thumb/v7e-m/fpv4-sp/hard\libstdc++_nano.a(eh_terminate.o)
 .text._ZSt14set_unexpectedPFvvE
                0x00000000       0x20 c:/stm32/gcc-arm-none-eabi/bin/../lib/gcc/arm-none-eabi/7.3.1/../../../../arm-none-eabi/lib/thumb/v7e-m/fpv4-sp/hard\libstdc++_nano.a(eh_terminate.o)
 .text          0x00000000        0x0 c:/stm32/gcc-arm-none-eabi/bin/../lib/gcc/arm-none-eabi/7.3.1/../../../../arm-none-eabi/lib/thumb/v7e-m/fpv4-sp/hard\libstdc++_nano.a(eh_arm.o)
 .data          0x00000000        0x0 c:/stm32/gcc-arm-none-eabi/bin/../lib/gcc/arm-none-eabi/7.3.1/../../../../arm-none-eabi/lib/thumb/v7e-m/fpv4-sp/hard\libstdc++_nano.a(eh_arm.o)
 .bss           0x00000000        0x0 c:/stm32/gcc-arm-none-eabi/bin/../lib/gcc/arm-none-eabi/7.3.1/../../../../arm-none-eabi/lib/thumb/v7e-m/fpv4-sp/hard\libstdc++_nano.a(eh_arm.o)
 .text          0x00000000        0x0 c:/stm32/gcc-arm-none-eabi/bin/../lib/gcc/arm-none-eabi/7.3.1/../../../../arm-none-eabi/lib/thumb/v7e-m/fpv4-sp/hard\libstdc++_nano.a(atexit_arm.o)
 .data          0x00000000        0x0 c:/stm32/gcc-arm-none-eabi/bin/../lib/gcc/arm-none-eabi/7.3.1/../../../../arm-none-eabi/lib/thumb/v7e-m/fpv4-sp/hard\libstdc++_nano.a(atexit_arm.o)
 .bss           0x00000000        0x0 c:/stm32/gcc-arm-none-eabi/bin/../lib/gcc/arm-none-eabi/7.3.1/../../../../arm-none-eabi/lib/thumb/v7e-m/fpv4-sp/hard\libstdc++_nano.a(atexit_arm.o)
 .text          0x00000000        0x0 c:/stm32/gcc-arm-none-eabi/bin/../lib/gcc/arm-none-eabi/7.3.1/../../../../arm-none-eabi/lib/thumb/v7e-m/fpv4-sp/hard\libstdc++_nano.a(new_opv.o)
 .data          0x00000000        0x0 c:/stm32/gcc-arm-none-eabi/bin/../lib/gcc/arm-none-eabi/7.3.1/../../../../arm-none-eabi/lib/thumb/v7e-m/fpv4-sp/hard\libstdc++_nano.a(new_opv.o)
 .bss           0x00000000        0x0 c:/stm32/gcc-arm-none-eabi/bin/../lib/gcc/arm-none-eabi/7.3.1/../../../../arm-none-eabi/lib/thumb/v7e-m/fpv4-sp/hard\libstdc++_nano.a(new_opv.o)
 .text          0x00000000        0x0 c:/stm32/gcc-arm-none-eabi/bin/../lib/gcc/arm-none-eabi/7.3.1/../../../../arm-none-eabi/lib/thumb/v7e-m/fpv4-sp/hard\libstdc++_nano.a(eh_exception.o)
 .data          0x00000000        0x0 c:/stm32/gcc-arm-none-eabi/bin/../lib/gcc/arm-none-eabi/7.3.1/../../../../arm-none-eabi/lib/thumb/v7e-m/fpv4-sp/hard\libstdc++_nano.a(eh_exception.o)
 .bss           0x00000000        0x0 c:/stm32/gcc-arm-none-eabi/bin/../lib/gcc/arm-none-eabi/7.3.1/../../../../arm-none-eabi/lib/thumb/v7e-m/fpv4-sp/hard\libstdc++_nano.a(eh_exception.o)
 .text._ZNSt9exceptionD2Ev
                0x00000000        0x2 c:/stm32/gcc-arm-none-eabi/bin/../lib/gcc/arm-none-eabi/7.3.1/../../../../arm-none-eabi/lib/thumb/v7e-m/fpv4-sp/hard\libstdc++_nano.a(eh_exception.o)
 .text._ZNSt13bad_exceptionD2Ev
                0x00000000        0x2 c:/stm32/gcc-arm-none-eabi/bin/../lib/gcc/arm-none-eabi/7.3.1/../../../../arm-none-eabi/lib/thumb/v7e-m/fpv4-sp/hard\libstdc++_nano.a(eh_exception.o)
 .text._ZNKSt9exception4whatEv
                0x00000000        0x8 c:/stm32/gcc-arm-none-eabi/bin/../lib/gcc/arm-none-eabi/7.3.1/../../../../arm-none-eabi/lib/thumb/v7e-m/fpv4-sp/hard\libstdc++_nano.a(eh_exception.o)
 .text._ZNKSt13bad_exception4whatEv
                0x00000000        0x8 c:/stm32/gcc-arm-none-eabi/bin/../lib/gcc/arm-none-eabi/7.3.1/../../../../arm-none-eabi/lib/thumb/v7e-m/fpv4-sp/hard\libstdc++_nano.a(eh_exception.o)
 .text._ZNSt9exceptionD0Ev
                0x00000000        0xe c:/stm32/gcc-arm-none-eabi/bin/../lib/gcc/arm-none-eabi/7.3.1/../../../../arm-none-eabi/lib/thumb/v7e-m/fpv4-sp/hard\libstdc++_nano.a(eh_exception.o)
 .text._ZNSt13bad_exceptionD0Ev
                0x00000000        0xe c:/stm32/gcc-arm-none-eabi/bin/../lib/gcc/arm-none-eabi/7.3.1/../../../../arm-none-eabi/lib/thumb/v7e-m/fpv4-sp/hard\libstdc++_nano.a(eh_exception.o)
 .text._ZN10__cxxabiv115__forced_unwindD2Ev
                0x00000000        0x2 c:/stm32/gcc-arm-none-eabi/bin/../lib/gcc/arm-none-eabi/7.3.1/../../../../arm-none-eabi/lib/thumb/v7e-m/fpv4-sp/hard\libstdc++_nano.a(eh_exception.o)
 .text._ZN10__cxxabiv115__forced_unwindD0Ev
                0x00000000        0xe c:/stm32/gcc-arm-none-eabi/bin/../lib/gcc/arm-none-eabi/7.3.1/../../../../arm-none-eabi/lib/thumb/v7e-m/fpv4-sp/hard\libstdc++_nano.a(eh_exception.o)
 .text._ZN10__cxxabiv119__foreign_exceptionD2Ev
                0x00000000        0x2 c:/stm32/gcc-arm-none-eabi/bin/../lib/gcc/arm-none-eabi/7.3.1/../../../../arm-none-eabi/lib/thumb/v7e-m/fpv4-sp/hard\libstdc++_nano.a(eh_exception.o)
 .text._ZN10__cxxabiv119__foreign_exceptionD0Ev
                0x00000000        0xe c:/stm32/gcc-arm-none-eabi/bin/../lib/gcc/arm-none-eabi/7.3.1/../../../../arm-none-eabi/lib/thumb/v7e-m/fpv4-sp/hard\libstdc++_nano.a(eh_exception.o)
 .text._ZGTtNKSt9exceptionD1Ev
                0x00000000        0x2 c:/stm32/gcc-arm-none-eabi/bin/../lib/gcc/arm-none-eabi/7.3.1/../../../../arm-none-eabi/lib/thumb/v7e-m/fpv4-sp/hard\libstdc++_nano.a(eh_exception.o)
 .text._ZGTtNKSt13bad_exceptionD1Ev
                0x00000000        0x2 c:/stm32/gcc-arm-none-eabi/bin/../lib/gcc/arm-none-eabi/7.3.1/../../../../arm-none-eabi/lib/thumb/v7e-m/fpv4-sp/hard\libstdc++_nano.a(eh_exception.o)
 .rodata._ZNKSt13bad_exception4whatEv.str1.1
                0x00000000       0x13 c:/stm32/gcc-arm-none-eabi/bin/../lib/gcc/arm-none-eabi/7.3.1/../../../../arm-none-eabi/lib/thumb/v7e-m/fpv4-sp/hard\libstdc++_nano.a(eh_exception.o)
 .rodata._ZNKSt9exception4whatEv.str1.1
                0x00000000        0xf c:/stm32/gcc-arm-none-eabi/bin/../lib/gcc/arm-none-eabi/7.3.1/../../../../arm-none-eabi/lib/thumb/v7e-m/fpv4-sp/hard\libstdc++_nano.a(eh_exception.o)
 .rodata._ZTISt13bad_exception
                0x00000000        0xc c:/stm32/gcc-arm-none-eabi/bin/../lib/gcc/arm-none-eabi/7.3.1/../../../../arm-none-eabi/lib/thumb/v7e-m/fpv4-sp/hard\libstdc++_nano.a(eh_exception.o)
 .rodata._ZTISt9exception
                0x00000000        0x8 c:/stm32/gcc-arm-none-eabi/bin/../lib/gcc/arm-none-eabi/7.3.1/../../../../arm-none-eabi/lib/thumb/v7e-m/fpv4-sp/hard\libstdc++_nano.a(eh_exception.o)
 .rodata._ZTSSt13bad_exception
                0x00000000       0x12 c:/stm32/gcc-arm-none-eabi/bin/../lib/gcc/arm-none-eabi/7.3.1/../../../../arm-none-eabi/lib/thumb/v7e-m/fpv4-sp/hard\libstdc++_nano.a(eh_exception.o)
 .rodata._ZTSSt9exception
                0x00000000        0xd c:/stm32/gcc-arm-none-eabi/bin/../lib/gcc/arm-none-eabi/7.3.1/../../../../arm-none-eabi/lib/thumb/v7e-m/fpv4-sp/hard\libstdc++_nano.a(eh_exception.o)
 .rodata._ZTVN10__cxxabiv115__forced_unwindE
                0x00000000       0x14 c:/stm32/gcc-arm-none-eabi/bin/../lib/gcc/arm-none-eabi/7.3.1/../../../../arm-none-eabi/lib/thumb/v7e-m/fpv4-sp/hard\libstdc++_nano.a(eh_exception.o)
 .rodata._ZTVN10__cxxabiv119__foreign_exceptionE
                0x00000000       0x14 c:/stm32/gcc-arm-none-eabi/bin/../lib/gcc/arm-none-eabi/7.3.1/../../../../arm-none-eabi/lib/thumb/v7e-m/fpv4-sp/hard\libstdc++_nano.a(eh_exception.o)
 .rodata._ZTVSt13bad_exception
                0x00000000       0x14 c:/stm32/gcc-arm-none-eabi/bin/../lib/gcc/arm-none-eabi/7.3.1/../../../../arm-none-eabi/lib/thumb/v7e-m/fpv4-sp/hard\libstdc++_nano.a(eh_exception.o)
 .rodata._ZTVSt9exception
                0x00000000       0x14 c:/stm32/gcc-arm-none-eabi/bin/../lib/gcc/arm-none-eabi/7.3.1/../../../../arm-none-eabi/lib/thumb/v7e-m/fpv4-sp/hard\libstdc++_nano.a(eh_exception.o)
 .text          0x00000000        0x0 c:/stm32/gcc-arm-none-eabi/bin/../lib/gcc/arm-none-eabi/7.3.1/../../../../arm-none-eabi/lib/thumb/v7e-m/fpv4-sp/hard\libstdc++_nano.a(eh_term_handler.o)
 .data          0x00000000        0x0 c:/stm32/gcc-arm-none-eabi/bin/../lib/gcc/arm-none-eabi/7.3.1/../../../../arm-none-eabi/lib/thumb/v7e-m/fpv4-sp/hard\libstdc++_nano.a(eh_term_handler.o)
 .bss           0x00000000        0x0 c:/stm32/gcc-arm-none-eabi/bin/../lib/gcc/arm-none-eabi/7.3.1/../../../../arm-none-eabi/lib/thumb/v7e-m/fpv4-sp/hard\libstdc++_nano.a(eh_term_handler.o)
 .text          0x00000000        0x0 c:/stm32/gcc-arm-none-eabi/bin/../lib/gcc/arm-none-eabi/7.3.1/../../../../arm-none-eabi/lib/thumb/v7e-m/fpv4-sp/hard\libstdc++_nano.a(eh_unex_handler.o)
 .data          0x00000000        0x0 c:/stm32/gcc-arm-none-eabi/bin/../lib/gcc/arm-none-eabi/7.3.1/../../../../arm-none-eabi/lib/thumb/v7e-m/fpv4-sp/hard\libstdc++_nano.a(eh_unex_handler.o)
 .bss           0x00000000        0x0 c:/stm32/gcc-arm-none-eabi/bin/../lib/gcc/arm-none-eabi/7.3.1/../../../../arm-none-eabi/lib/thumb/v7e-m/fpv4-sp/hard\libstdc++_nano.a(eh_unex_handler.o)
 .text          0x00000000        0x0 c:/stm32/gcc-arm-none-eabi/bin/../lib/gcc/arm-none-eabi/7.3.1/../../../../arm-none-eabi/lib/thumb/v7e-m/fpv4-sp/hard\libstdc++_nano.a(del_ops.o)
 .data          0x00000000        0x0 c:/stm32/gcc-arm-none-eabi/bin/../lib/gcc/arm-none-eabi/7.3.1/../../../../arm-none-eabi/lib/thumb/v7e-m/fpv4-sp/hard\libstdc++_nano.a(del_ops.o)
 .bss           0x00000000        0x0 c:/stm32/gcc-arm-none-eabi/bin/../lib/gcc/arm-none-eabi/7.3.1/../../../../arm-none-eabi/lib/thumb/v7e-m/fpv4-sp/hard\libstdc++_nano.a(del_ops.o)
 .text          0x00000000        0x0 c:/stm32/gcc-arm-none-eabi/bin/../lib/gcc/arm-none-eabi/7.3.1/../../../../arm-none-eabi/lib/thumb/v7e-m/fpv4-sp/hard\libstdc++_nano.a(si_class_type_info.o)
 .data          0x00000000        0x0 c:/stm32/gcc-arm-none-eabi/bin/../lib/gcc/arm-none-eabi/7.3.1/../../../../arm-none-eabi/lib/thumb/v7e-m/fpv4-sp/hard\libstdc++_nano.a(si_class_type_info.o)
 .bss           0x00000000        0x0 c:/stm32/gcc-arm-none-eabi/bin/../lib/gcc/arm-none-eabi/7.3.1/../../../../arm-none-eabi/lib/thumb/v7e-m/fpv4-sp/hard\libstdc++_nano.a(si_class_type_info.o)
 .text          0x00000000        0x0 c:/stm32/gcc-arm-none-eabi/bin/../lib/gcc/arm-none-eabi/7.3.1/../../../../arm-none-eabi/lib/thumb/v7e-m/fpv4-sp/hard\libstdc++_nano.a(tinfo.o)
 .data          0x00000000        0x0 c:/stm32/gcc-arm-none-eabi/bin/../lib/gcc/arm-none-eabi/7.3.1/../../../../arm-none-eabi/lib/thumb/v7e-m/fpv4-sp/hard\libstdc++_nano.a(tinfo.o)
 .bss           0x00000000        0x0 c:/stm32/gcc-arm-none-eabi/bin/../lib/gcc/arm-none-eabi/7.3.1/../../../../arm-none-eabi/lib/thumb/v7e-m/fpv4-sp/hard\libstdc++_nano.a(tinfo.o)
 .text._ZNKSt9type_info11__do_upcastEPKN10__cxxabiv117__class_type_infoEPPv
                0x00000000        0x4 c:/stm32/gcc-arm-none-eabi/bin/../lib/gcc/arm-none-eabi/7.3.1/../../../../arm-none-eabi/lib/thumb/v7e-m/fpv4-sp/hard\libstdc++_nano.a(tinfo.o)
 .text._ZNSt9type_infoD0Ev
                0x00000000        0xe c:/stm32/gcc-arm-none-eabi/bin/../lib/gcc/arm-none-eabi/7.3.1/../../../../arm-none-eabi/lib/thumb/v7e-m/fpv4-sp/hard\libstdc++_nano.a(tinfo.o)
 .text._ZNKSt9type_info10__do_catchEPKS_PPvj
                0x00000000        0x4 c:/stm32/gcc-arm-none-eabi/bin/../lib/gcc/arm-none-eabi/7.3.1/../../../../arm-none-eabi/lib/thumb/v7e-m/fpv4-sp/hard\libstdc++_nano.a(tinfo.o)
 .rodata._ZTVSt9type_info
                0x00000000       0x20 c:/stm32/gcc-arm-none-eabi/bin/../lib/gcc/arm-none-eabi/7.3.1/../../../../arm-none-eabi/lib/thumb/v7e-m/fpv4-sp/hard\libstdc++_nano.a(tinfo.o)
 .text          0x00000000        0x0 c:/stm32/gcc-arm-none-eabi/bin/../lib/gcc/arm-none-eabi/7.3.1/../../../../arm-none-eabi/lib/thumb/v7e-m/fpv4-sp/hard\libstdc++_nano.a(class_type_info.o)
 .data          0x00000000        0x0 c:/stm32/gcc-arm-none-eabi/bin/../lib/gcc/arm-none-eabi/7.3.1/../../../../arm-none-eabi/lib/thumb/v7e-m/fpv4-sp/hard\libstdc++_nano.a(class_type_info.o)
 .bss           0x00000000        0x0 c:/stm32/gcc-arm-none-eabi/bin/../lib/gcc/arm-none-eabi/7.3.1/../../../../arm-none-eabi/lib/thumb/v7e-m/fpv4-sp/hard\libstdc++_nano.a(class_type_info.o)
 .text          0x00000000        0x0 c:/stm32/gcc-arm-none-eabi/bin/../lib/gcc/arm-none-eabi/7.3.1/../../../../arm-none-eabi/lib/thumb/v7e-m/fpv4-sp/hard\libc_nano.a(lib_a-abort.o)
 .data          0x00000000        0x0 c:/stm32/gcc-arm-none-eabi/bin/../lib/gcc/arm-none-eabi/7.3.1/../../../../arm-none-eabi/lib/thumb/v7e-m/fpv4-sp/hard\libc_nano.a(lib_a-abort.o)
 .bss           0x00000000        0x0 c:/stm32/gcc-arm-none-eabi/bin/../lib/gcc/arm-none-eabi/7.3.1/../../../../arm-none-eabi/lib/thumb/v7e-m/fpv4-sp/hard\libc_nano.a(lib_a-abort.o)
 .text          0x00000000        0x0 c:/stm32/gcc-arm-none-eabi/bin/../lib/gcc/arm-none-eabi/7.3.1/../../../../arm-none-eabi/lib/thumb/v7e-m/fpv4-sp/hard\libc_nano.a(lib_a-atof.o)
 .data          0x00000000        0x0 c:/stm32/gcc-arm-none-eabi/bin/../lib/gcc/arm-none-eabi/7.3.1/../../../../arm-none-eabi/lib/thumb/v7e-m/fpv4-sp/hard\libc_nano.a(lib_a-atof.o)
 .bss           0x00000000        0x0 c:/stm32/gcc-arm-none-eabi/bin/../lib/gcc/arm-none-eabi/7.3.1/../../../../arm-none-eabi/lib/thumb/v7e-m/fpv4-sp/hard\libc_nano.a(lib_a-atof.o)
 .text.atof     0x00000000        0x6 c:/stm32/gcc-arm-none-eabi/bin/../lib/gcc/arm-none-eabi/7.3.1/../../../../arm-none-eabi/lib/thumb/v7e-m/fpv4-sp/hard\libc_nano.a(lib_a-atof.o)
 .debug_frame   0x00000000       0x20 c:/stm32/gcc-arm-none-eabi/bin/../lib/gcc/arm-none-eabi/7.3.1/../../../../arm-none-eabi/lib/thumb/v7e-m/fpv4-sp/hard\libc_nano.a(lib_a-atof.o)
 .ARM.attributes
                0x00000000       0x34 c:/stm32/gcc-arm-none-eabi/bin/../lib/gcc/arm-none-eabi/7.3.1/../../../../arm-none-eabi/lib/thumb/v7e-m/fpv4-sp/hard\libc_nano.a(lib_a-atof.o)
 .text          0x00000000        0x0 c:/stm32/gcc-arm-none-eabi/bin/../lib/gcc/arm-none-eabi/7.3.1/../../../../arm-none-eabi/lib/thumb/v7e-m/fpv4-sp/hard\libc_nano.a(lib_a-atol.o)
 .data          0x00000000        0x0 c:/stm32/gcc-arm-none-eabi/bin/../lib/gcc/arm-none-eabi/7.3.1/../../../../arm-none-eabi/lib/thumb/v7e-m/fpv4-sp/hard\libc_nano.a(lib_a-atol.o)
 .bss           0x00000000        0x0 c:/stm32/gcc-arm-none-eabi/bin/../lib/gcc/arm-none-eabi/7.3.1/../../../../arm-none-eabi/lib/thumb/v7e-m/fpv4-sp/hard\libc_nano.a(lib_a-atol.o)
 .text.atol     0x00000000        0x8 c:/stm32/gcc-arm-none-eabi/bin/../lib/gcc/arm-none-eabi/7.3.1/../../../../arm-none-eabi/lib/thumb/v7e-m/fpv4-sp/hard\libc_nano.a(lib_a-atol.o)
 .text._atol_r  0x00000000        0x8 c:/stm32/gcc-arm-none-eabi/bin/../lib/gcc/arm-none-eabi/7.3.1/../../../../arm-none-eabi/lib/thumb/v7e-m/fpv4-sp/hard\libc_nano.a(lib_a-atol.o)
 .debug_frame   0x00000000       0x30 c:/stm32/gcc-arm-none-eabi/bin/../lib/gcc/arm-none-eabi/7.3.1/../../../../arm-none-eabi/lib/thumb/v7e-m/fpv4-sp/hard\libc_nano.a(lib_a-atol.o)
 .ARM.attributes
                0x00000000       0x34 c:/stm32/gcc-arm-none-eabi/bin/../lib/gcc/arm-none-eabi/7.3.1/../../../../arm-none-eabi/lib/thumb/v7e-m/fpv4-sp/hard\libc_nano.a(lib_a-atol.o)
 .text          0x00000000        0x0 c:/stm32/gcc-arm-none-eabi/bin/../lib/gcc/arm-none-eabi/7.3.1/../../../../arm-none-eabi/lib/thumb/v7e-m/fpv4-sp/hard\libc_nano.a(lib_a-cxa_atexit.o)
 .data          0x00000000        0x0 c:/stm32/gcc-arm-none-eabi/bin/../lib/gcc/arm-none-eabi/7.3.1/../../../../arm-none-eabi/lib/thumb/v7e-m/fpv4-sp/hard\libc_nano.a(lib_a-cxa_atexit.o)
 .bss           0x00000000        0x0 c:/stm32/gcc-arm-none-eabi/bin/../lib/gcc/arm-none-eabi/7.3.1/../../../../arm-none-eabi/lib/thumb/v7e-m/fpv4-sp/hard\libc_nano.a(lib_a-cxa_atexit.o)
 .rodata.__cxa_atexit_dummy
                0x00000000        0x4 c:/stm32/gcc-arm-none-eabi/bin/../lib/gcc/arm-none-eabi/7.3.1/../../../../arm-none-eabi/lib/thumb/v7e-m/fpv4-sp/hard\libc_nano.a(lib_a-cxa_atexit.o)
 .text          0x00000000        0x0 c:/stm32/gcc-arm-none-eabi/bin/../lib/gcc/arm-none-eabi/7.3.1/../../../../arm-none-eabi/lib/thumb/v7e-m/fpv4-sp/hard\libc_nano.a(lib_a-exit.o)
 .data          0x00000000        0x0 c:/stm32/gcc-arm-none-eabi/bin/../lib/gcc/arm-none-eabi/7.3.1/../../../../arm-none-eabi/lib/thumb/v7e-m/fpv4-sp/hard\libc_nano.a(lib_a-exit.o)
 .bss           0x00000000        0x0 c:/stm32/gcc-arm-none-eabi/bin/../lib/gcc/arm-none-eabi/7.3.1/../../../../arm-none-eabi/lib/thumb/v7e-m/fpv4-sp/hard\libc_nano.a(lib_a-exit.o)
 .text.exit     0x00000000       0x28 c:/stm32/gcc-arm-none-eabi/bin/../lib/gcc/arm-none-eabi/7.3.1/../../../../arm-none-eabi/lib/thumb/v7e-m/fpv4-sp/hard\libc_nano.a(lib_a-exit.o)
 .debug_frame   0x00000000       0x28 c:/stm32/gcc-arm-none-eabi/bin/../lib/gcc/arm-none-eabi/7.3.1/../../../../arm-none-eabi/lib/thumb/v7e-m/fpv4-sp/hard\libc_nano.a(lib_a-exit.o)
 .ARM.attributes
                0x00000000       0x34 c:/stm32/gcc-arm-none-eabi/bin/../lib/gcc/arm-none-eabi/7.3.1/../../../../arm-none-eabi/lib/thumb/v7e-m/fpv4-sp/hard\libc_nano.a(lib_a-exit.o)
 .text          0x00000000        0x0 c:/stm32/gcc-arm-none-eabi/bin/../lib/gcc/arm-none-eabi/7.3.1/../../../../arm-none-eabi/lib/thumb/v7e-m/fpv4-sp/hard\libc_nano.a(lib_a-impure.o)
 .data          0x00000000        0x0 c:/stm32/gcc-arm-none-eabi/bin/../lib/gcc/arm-none-eabi/7.3.1/../../../../arm-none-eabi/lib/thumb/v7e-m/fpv4-sp/hard\libc_nano.a(lib_a-impure.o)
 .bss           0x00000000        0x0 c:/stm32/gcc-arm-none-eabi/bin/../lib/gcc/arm-none-eabi/7.3.1/../../../../arm-none-eabi/lib/thumb/v7e-m/fpv4-sp/hard\libc_nano.a(lib_a-impure.o)
 .rodata._global_impure_ptr
                0x00000000        0x4 c:/stm32/gcc-arm-none-eabi/bin/../lib/gcc/arm-none-eabi/7.3.1/../../../../arm-none-eabi/lib/thumb/v7e-m/fpv4-sp/hard\libc_nano.a(lib_a-impure.o)
 .text          0x00000000        0x0 c:/stm32/gcc-arm-none-eabi/bin/../lib/gcc/arm-none-eabi/7.3.1/../../../../arm-none-eabi/lib/thumb/v7e-m/fpv4-sp/hard\libc_nano.a(lib_a-init.o)
 .data          0x00000000        0x0 c:/stm32/gcc-arm-none-eabi/bin/../lib/gcc/arm-none-eabi/7.3.1/../../../../arm-none-eabi/lib/thumb/v7e-m/fpv4-sp/hard\libc_nano.a(lib_a-init.o)
 .bss           0x00000000        0x0 c:/stm32/gcc-arm-none-eabi/bin/../lib/gcc/arm-none-eabi/7.3.1/../../../../arm-none-eabi/lib/thumb/v7e-m/fpv4-sp/hard\libc_nano.a(lib_a-init.o)
 .text          0x00000000        0x0 c:/stm32/gcc-arm-none-eabi/bin/../lib/gcc/arm-none-eabi/7.3.1/../../../../arm-none-eabi/lib/thumb/v7e-m/fpv4-sp/hard\libc_nano.a(lib_a-isspace.o)
 .data          0x00000000        0x0 c:/stm32/gcc-arm-none-eabi/bin/../lib/gcc/arm-none-eabi/7.3.1/../../../../arm-none-eabi/lib/thumb/v7e-m/fpv4-sp/hard\libc_nano.a(lib_a-isspace.o)
 .bss           0x00000000        0x0 c:/stm32/gcc-arm-none-eabi/bin/../lib/gcc/arm-none-eabi/7.3.1/../../../../arm-none-eabi/lib/thumb/v7e-m/fpv4-sp/hard\libc_nano.a(lib_a-isspace.o)
 .text.isspace  0x00000000       0x12 c:/stm32/gcc-arm-none-eabi/bin/../lib/gcc/arm-none-eabi/7.3.1/../../../../arm-none-eabi/lib/thumb/v7e-m/fpv4-sp/hard\libc_nano.a(lib_a-isspace.o)
 .debug_frame   0x00000000       0x28 c:/stm32/gcc-arm-none-eabi/bin/../lib/gcc/arm-none-eabi/7.3.1/../../../../arm-none-eabi/lib/thumb/v7e-m/fpv4-sp/hard\libc_nano.a(lib_a-isspace.o)
 .ARM.attributes
                0x00000000       0x34 c:/stm32/gcc-arm-none-eabi/bin/../lib/gcc/arm-none-eabi/7.3.1/../../../../arm-none-eabi/lib/thumb/v7e-m/fpv4-sp/hard\libc_nano.a(lib_a-isspace.o)
 .text          0x00000000        0x0 c:/stm32/gcc-arm-none-eabi/bin/../lib/gcc/arm-none-eabi/7.3.1/../../../../arm-none-eabi/lib/thumb/v7e-m/fpv4-sp/hard\libc_nano.a(lib_a-locale.o)
 .data          0x00000000        0x0 c:/stm32/gcc-arm-none-eabi/bin/../lib/gcc/arm-none-eabi/7.3.1/../../../../arm-none-eabi/lib/thumb/v7e-m/fpv4-sp/hard\libc_nano.a(lib_a-locale.o)
 .bss           0x00000000        0x0 c:/stm32/gcc-arm-none-eabi/bin/../lib/gcc/arm-none-eabi/7.3.1/../../../../arm-none-eabi/lib/thumb/v7e-m/fpv4-sp/hard\libc_nano.a(lib_a-locale.o)
 .text._setlocale_r
                0x00000000       0x38 c:/stm32/gcc-arm-none-eabi/bin/../lib/gcc/arm-none-eabi/7.3.1/../../../../arm-none-eabi/lib/thumb/v7e-m/fpv4-sp/hard\libc_nano.a(lib_a-locale.o)
 .text.__locale_mb_cur_max
                0x00000000       0x1c c:/stm32/gcc-arm-none-eabi/bin/../lib/gcc/arm-none-eabi/7.3.1/../../../../arm-none-eabi/lib/thumb/v7e-m/fpv4-sp/hard\libc_nano.a(lib_a-locale.o)
 .text.__locale_ctype_ptr_l
                0x00000000        0x6 c:/stm32/gcc-arm-none-eabi/bin/../lib/gcc/arm-none-eabi/7.3.1/../../../../arm-none-eabi/lib/thumb/v7e-m/fpv4-sp/hard\libc_nano.a(lib_a-locale.o)
 .text.__locale_ctype_ptr
                0x00000000       0x1c c:/stm32/gcc-arm-none-eabi/bin/../lib/gcc/arm-none-eabi/7.3.1/../../../../arm-none-eabi/lib/thumb/v7e-m/fpv4-sp/hard\libc_nano.a(lib_a-locale.o)
 .text.setlocale
                0x00000000       0x10 c:/stm32/gcc-arm-none-eabi/bin/../lib/gcc/arm-none-eabi/7.3.1/../../../../arm-none-eabi/lib/thumb/v7e-m/fpv4-sp/hard\libc_nano.a(lib_a-locale.o)
 .bss._PathLocale
                0x00000000        0x4 c:/stm32/gcc-arm-none-eabi/bin/../lib/gcc/arm-none-eabi/7.3.1/../../../../arm-none-eabi/lib/thumb/v7e-m/fpv4-sp/hard\libc_nano.a(lib_a-locale.o)
 .data.__global_locale
                0x00000000      0x16c c:/stm32/gcc-arm-none-eabi/bin/../lib/gcc/arm-none-eabi/7.3.1/../../../../arm-none-eabi/lib/thumb/v7e-m/fpv4-sp/hard\libc_nano.a(lib_a-locale.o)
 .rodata._setlocale_r.str1.1
                0x00000000        0x9 c:/stm32/gcc-arm-none-eabi/bin/../lib/gcc/arm-none-eabi/7.3.1/../../../../arm-none-eabi/lib/thumb/v7e-m/fpv4-sp/hard\libc_nano.a(lib_a-locale.o)
 .rodata.str1.1
                0x00000000        0x2 c:/stm32/gcc-arm-none-eabi/bin/../lib/gcc/arm-none-eabi/7.3.1/../../../../arm-none-eabi/lib/thumb/v7e-m/fpv4-sp/hard\libc_nano.a(lib_a-locale.o)
 .debug_frame   0x00000000       0x68 c:/stm32/gcc-arm-none-eabi/bin/../lib/gcc/arm-none-eabi/7.3.1/../../../../arm-none-eabi/lib/thumb/v7e-m/fpv4-sp/hard\libc_nano.a(lib_a-locale.o)
 .ARM.attributes
                0x00000000       0x34 c:/stm32/gcc-arm-none-eabi/bin/../lib/gcc/arm-none-eabi/7.3.1/../../../../arm-none-eabi/lib/thumb/v7e-m/fpv4-sp/hard\libc_nano.a(lib_a-locale.o)
 .text          0x00000000        0x0 c:/stm32/gcc-arm-none-eabi/bin/../lib/gcc/arm-none-eabi/7.3.1/../../../../arm-none-eabi/lib/thumb/v7e-m/fpv4-sp/hard\libc_nano.a(lib_a-malloc.o)
 .data          0x00000000        0x0 c:/stm32/gcc-arm-none-eabi/bin/../lib/gcc/arm-none-eabi/7.3.1/../../../../arm-none-eabi/lib/thumb/v7e-m/fpv4-sp/hard\libc_nano.a(lib_a-malloc.o)
 .bss           0x00000000        0x0 c:/stm32/gcc-arm-none-eabi/bin/../lib/gcc/arm-none-eabi/7.3.1/../../../../arm-none-eabi/lib/thumb/v7e-m/fpv4-sp/hard\libc_nano.a(lib_a-malloc.o)
 .text          0x00000000        0x0 c:/stm32/gcc-arm-none-eabi/bin/../lib/gcc/arm-none-eabi/7.3.1/../../../../arm-none-eabi/lib/thumb/v7e-m/fpv4-sp/hard\libc_nano.a(lib_a-mbtowc_r.o)
 .data          0x00000000        0x0 c:/stm32/gcc-arm-none-eabi/bin/../lib/gcc/arm-none-eabi/7.3.1/../../../../arm-none-eabi/lib/thumb/v7e-m/fpv4-sp/hard\libc_nano.a(lib_a-mbtowc_r.o)
 .bss           0x00000000        0x0 c:/stm32/gcc-arm-none-eabi/bin/../lib/gcc/arm-none-eabi/7.3.1/../../../../arm-none-eabi/lib/thumb/v7e-m/fpv4-sp/hard\libc_nano.a(lib_a-mbtowc_r.o)
 .text._mbtowc_r
                0x00000000       0x24 c:/stm32/gcc-arm-none-eabi/bin/../lib/gcc/arm-none-eabi/7.3.1/../../../../arm-none-eabi/lib/thumb/v7e-m/fpv4-sp/hard\libc_nano.a(lib_a-mbtowc_r.o)
 .text.__ascii_mbtowc
                0x00000000       0x24 c:/stm32/gcc-arm-none-eabi/bin/../lib/gcc/arm-none-eabi/7.3.1/../../../../arm-none-eabi/lib/thumb/v7e-m/fpv4-sp/hard\libc_nano.a(lib_a-mbtowc_r.o)
 .debug_frame   0x00000000       0x48 c:/stm32/gcc-arm-none-eabi/bin/../lib/gcc/arm-none-eabi/7.3.1/../../../../arm-none-eabi/lib/thumb/v7e-m/fpv4-sp/hard\libc_nano.a(lib_a-mbtowc_r.o)
 .ARM.attributes
                0x00000000       0x34 c:/stm32/gcc-arm-none-eabi/bin/../lib/gcc/arm-none-eabi/7.3.1/../../../../arm-none-eabi/lib/thumb/v7e-m/fpv4-sp/hard\libc_nano.a(lib_a-mbtowc_r.o)
 .text          0x00000000        0x0 c:/stm32/gcc-arm-none-eabi/bin/../lib/gcc/arm-none-eabi/7.3.1/../../../../arm-none-eabi/lib/thumb/v7e-m/fpv4-sp/hard\libc_nano.a(lib_a-memcpy-stub.o)
 .data          0x00000000        0x0 c:/stm32/gcc-arm-none-eabi/bin/../lib/gcc/arm-none-eabi/7.3.1/../../../../arm-none-eabi/lib/thumb/v7e-m/fpv4-sp/hard\libc_nano.a(lib_a-memcpy-stub.o)
 .bss           0x00000000        0x0 c:/stm32/gcc-arm-none-eabi/bin/../lib/gcc/arm-none-eabi/7.3.1/../../../../arm-none-eabi/lib/thumb/v7e-m/fpv4-sp/hard\libc_nano.a(lib_a-memcpy-stub.o)
 .text          0x00000000        0x0 c:/stm32/gcc-arm-none-eabi/bin/../lib/gcc/arm-none-eabi/7.3.1/../../../../arm-none-eabi/lib/thumb/v7e-m/fpv4-sp/hard\libc_nano.a(lib_a-memmove.o)
 .data          0x00000000        0x0 c:/stm32/gcc-arm-none-eabi/bin/../lib/gcc/arm-none-eabi/7.3.1/../../../../arm-none-eabi/lib/thumb/v7e-m/fpv4-sp/hard\libc_nano.a(lib_a-memmove.o)
 .bss           0x00000000        0x0 c:/stm32/gcc-arm-none-eabi/bin/../lib/gcc/arm-none-eabi/7.3.1/../../../../arm-none-eabi/lib/thumb/v7e-m/fpv4-sp/hard\libc_nano.a(lib_a-memmove.o)
 .text          0x00000000        0x0 c:/stm32/gcc-arm-none-eabi/bin/../lib/gcc/arm-none-eabi/7.3.1/../../../../arm-none-eabi/lib/thumb/v7e-m/fpv4-sp/hard\libc_nano.a(lib_a-memset.o)
 .data          0x00000000        0x0 c:/stm32/gcc-arm-none-eabi/bin/../lib/gcc/arm-none-eabi/7.3.1/../../../../arm-none-eabi/lib/thumb/v7e-m/fpv4-sp/hard\libc_nano.a(lib_a-memset.o)
 .bss           0x00000000        0x0 c:/stm32/gcc-arm-none-eabi/bin/../lib/gcc/arm-none-eabi/7.3.1/../../../../arm-none-eabi/lib/thumb/v7e-m/fpv4-sp/hard\libc_nano.a(lib_a-memset.o)
 .text          0x00000000        0x0 c:/stm32/gcc-arm-none-eabi/bin/../lib/gcc/arm-none-eabi/7.3.1/../../../../arm-none-eabi/lib/thumb/v7e-m/fpv4-sp/hard\libc_nano.a(lib_a-nano-freer.o)
 .data          0x00000000        0x0 c:/stm32/gcc-arm-none-eabi/bin/../lib/gcc/arm-none-eabi/7.3.1/../../../../arm-none-eabi/lib/thumb/v7e-m/fpv4-sp/hard\libc_nano.a(lib_a-nano-freer.o)
 .bss           0x00000000        0x0 c:/stm32/gcc-arm-none-eabi/bin/../lib/gcc/arm-none-eabi/7.3.1/../../../../arm-none-eabi/lib/thumb/v7e-m/fpv4-sp/hard\libc_nano.a(lib_a-nano-freer.o)
 .text          0x00000000        0x0 c:/stm32/gcc-arm-none-eabi/bin/../lib/gcc/arm-none-eabi/7.3.1/../../../../arm-none-eabi/lib/thumb/v7e-m/fpv4-sp/hard\libc_nano.a(lib_a-nano-mallocr.o)
 .data          0x00000000        0x0 c:/stm32/gcc-arm-none-eabi/bin/../lib/gcc/arm-none-eabi/7.3.1/../../../../arm-none-eabi/lib/thumb/v7e-m/fpv4-sp/hard\libc_nano.a(lib_a-nano-mallocr.o)
 .bss           0x00000000        0x0 c:/stm32/gcc-arm-none-eabi/bin/../lib/gcc/arm-none-eabi/7.3.1/../../../../arm-none-eabi/lib/thumb/v7e-m/fpv4-sp/hard\libc_nano.a(lib_a-nano-mallocr.o)
 .text          0x00000000        0x0 c:/stm32/gcc-arm-none-eabi/bin/../lib/gcc/arm-none-eabi/7.3.1/../../../../arm-none-eabi/lib/thumb/v7e-m/fpv4-sp/hard\libc_nano.a(lib_a-on_exit_args.o)
 .data          0x00000000        0x0 c:/stm32/gcc-arm-none-eabi/bin/../lib/gcc/arm-none-eabi/7.3.1/../../../../arm-none-eabi/lib/thumb/v7e-m/fpv4-sp/hard\libc_nano.a(lib_a-on_exit_args.o)
 .bss           0x00000000        0x0 c:/stm32/gcc-arm-none-eabi/bin/../lib/gcc/arm-none-eabi/7.3.1/../../../../arm-none-eabi/lib/thumb/v7e-m/fpv4-sp/hard\libc_nano.a(lib_a-on_exit_args.o)
 .bss._on_exit_args_instance
                0x00000000      0x108 c:/stm32/gcc-arm-none-eabi/bin/../lib/gcc/arm-none-eabi/7.3.1/../../../../arm-none-eabi/lib/thumb/v7e-m/fpv4-sp/hard\libc_nano.a(lib_a-on_exit_args.o)
 .rodata.__on_exit_args
                0x00000000        0x4 c:/stm32/gcc-arm-none-eabi/bin/../lib/gcc/arm-none-eabi/7.3.1/../../../../arm-none-eabi/lib/thumb/v7e-m/fpv4-sp/hard\libc_nano.a(lib_a-on_exit_args.o)
 .ARM.attributes
                0x00000000       0x34 c:/stm32/gcc-arm-none-eabi/bin/../lib/gcc/arm-none-eabi/7.3.1/../../../../arm-none-eabi/lib/thumb/v7e-m/fpv4-sp/hard\libc_nano.a(lib_a-on_exit_args.o)
 .text          0x00000000        0x0 c:/stm32/gcc-arm-none-eabi/bin/../lib/gcc/arm-none-eabi/7.3.1/../../../../arm-none-eabi/lib/thumb/v7e-m/fpv4-sp/hard\libc_nano.a(lib_a-realloc.o)
 .data          0x00000000        0x0 c:/stm32/gcc-arm-none-eabi/bin/../lib/gcc/arm-none-eabi/7.3.1/../../../../arm-none-eabi/lib/thumb/v7e-m/fpv4-sp/hard\libc_nano.a(lib_a-realloc.o)
 .bss           0x00000000        0x0 c:/stm32/gcc-arm-none-eabi/bin/../lib/gcc/arm-none-eabi/7.3.1/../../../../arm-none-eabi/lib/thumb/v7e-m/fpv4-sp/hard\libc_nano.a(lib_a-realloc.o)
 .text.realloc  0x00000000       0x10 c:/stm32/gcc-arm-none-eabi/bin/../lib/gcc/arm-none-eabi/7.3.1/../../../../arm-none-eabi/lib/thumb/v7e-m/fpv4-sp/hard\libc_nano.a(lib_a-realloc.o)
 .debug_frame   0x00000000       0x20 c:/stm32/gcc-arm-none-eabi/bin/../lib/gcc/arm-none-eabi/7.3.1/../../../../arm-none-eabi/lib/thumb/v7e-m/fpv4-sp/hard\libc_nano.a(lib_a-realloc.o)
 .ARM.attributes
                0x00000000       0x34 c:/stm32/gcc-arm-none-eabi/bin/../lib/gcc/arm-none-eabi/7.3.1/../../../../arm-none-eabi/lib/thumb/v7e-m/fpv4-sp/hard\libc_nano.a(lib_a-realloc.o)
 .text          0x00000000        0x0 c:/stm32/gcc-arm-none-eabi/bin/../lib/gcc/arm-none-eabi/7.3.1/../../../../arm-none-eabi/lib/thumb/v7e-m/fpv4-sp/hard\libc_nano.a(lib_a-sbrkr.o)
 .data          0x00000000        0x0 c:/stm32/gcc-arm-none-eabi/bin/../lib/gcc/arm-none-eabi/7.3.1/../../../../arm-none-eabi/lib/thumb/v7e-m/fpv4-sp/hard\libc_nano.a(lib_a-sbrkr.o)
 .bss           0x00000000        0x0 c:/stm32/gcc-arm-none-eabi/bin/../lib/gcc/arm-none-eabi/7.3.1/../../../../arm-none-eabi/lib/thumb/v7e-m/fpv4-sp/hard\libc_nano.a(lib_a-sbrkr.o)
 .text          0x00000000        0x0 c:/stm32/gcc-arm-none-eabi/bin/../lib/gcc/arm-none-eabi/7.3.1/../../../../arm-none-eabi/lib/thumb/v7e-m/fpv4-sp/hard\libc_nano.a(lib_a-signal.o)
 .data          0x00000000        0x0 c:/stm32/gcc-arm-none-eabi/bin/../lib/gcc/arm-none-eabi/7.3.1/../../../../arm-none-eabi/lib/thumb/v7e-m/fpv4-sp/hard\libc_nano.a(lib_a-signal.o)
 .bss           0x00000000        0x0 c:/stm32/gcc-arm-none-eabi/bin/../lib/gcc/arm-none-eabi/7.3.1/../../../../arm-none-eabi/lib/thumb/v7e-m/fpv4-sp/hard\libc_nano.a(lib_a-signal.o)
 .text._init_signal_r
                0x00000000       0x28 c:/stm32/gcc-arm-none-eabi/bin/../lib/gcc/arm-none-eabi/7.3.1/../../../../arm-none-eabi/lib/thumb/v7e-m/fpv4-sp/hard\libc_nano.a(lib_a-signal.o)
 .text._signal_r
                0x00000000       0x30 c:/stm32/gcc-arm-none-eabi/bin/../lib/gcc/arm-none-eabi/7.3.1/../../../../arm-none-eabi/lib/thumb/v7e-m/fpv4-sp/hard\libc_nano.a(lib_a-signal.o)
 .text.__sigtramp_r
                0x00000000       0x48 c:/stm32/gcc-arm-none-eabi/bin/../lib/gcc/arm-none-eabi/7.3.1/../../../../arm-none-eabi/lib/thumb/v7e-m/fpv4-sp/hard\libc_nano.a(lib_a-signal.o)
 .text.signal   0x00000000       0x10 c:/stm32/gcc-arm-none-eabi/bin/../lib/gcc/arm-none-eabi/7.3.1/../../../../arm-none-eabi/lib/thumb/v7e-m/fpv4-sp/hard\libc_nano.a(lib_a-signal.o)
 .text._init_signal
                0x00000000        0xc c:/stm32/gcc-arm-none-eabi/bin/../lib/gcc/arm-none-eabi/7.3.1/../../../../arm-none-eabi/lib/thumb/v7e-m/fpv4-sp/hard\libc_nano.a(lib_a-signal.o)
 .text.__sigtramp
                0x00000000       0x10 c:/stm32/gcc-arm-none-eabi/bin/../lib/gcc/arm-none-eabi/7.3.1/../../../../arm-none-eabi/lib/thumb/v7e-m/fpv4-sp/hard\libc_nano.a(lib_a-signal.o)
 .text          0x00000000        0x0 c:/stm32/gcc-arm-none-eabi/bin/../lib/gcc/arm-none-eabi/7.3.1/../../../../arm-none-eabi/lib/thumb/v7e-m/fpv4-sp/hard\libc_nano.a(lib_a-signalr.o)
 .data          0x00000000        0x0 c:/stm32/gcc-arm-none-eabi/bin/../lib/gcc/arm-none-eabi/7.3.1/../../../../arm-none-eabi/lib/thumb/v7e-m/fpv4-sp/hard\libc_nano.a(lib_a-signalr.o)
 .bss           0x00000000        0x0 c:/stm32/gcc-arm-none-eabi/bin/../lib/gcc/arm-none-eabi/7.3.1/../../../../arm-none-eabi/lib/thumb/v7e-m/fpv4-sp/hard\libc_nano.a(lib_a-signalr.o)
 .text          0x00000000        0x0 c:/stm32/gcc-arm-none-eabi/bin/../lib/gcc/arm-none-eabi/7.3.1/../../../../arm-none-eabi/lib/thumb/v7e-m/fpv4-sp/hard\libc_nano.a(lib_a-sprintf.o)
 .data          0x00000000        0x0 c:/stm32/gcc-arm-none-eabi/bin/../lib/gcc/arm-none-eabi/7.3.1/../../../../arm-none-eabi/lib/thumb/v7e-m/fpv4-sp/hard\libc_nano.a(lib_a-sprintf.o)
 .bss           0x00000000        0x0 c:/stm32/gcc-arm-none-eabi/bin/../lib/gcc/arm-none-eabi/7.3.1/../../../../arm-none-eabi/lib/thumb/v7e-m/fpv4-sp/hard\libc_nano.a(lib_a-sprintf.o)
 .text._sprintf_r
                0x00000000       0x38 c:/stm32/gcc-arm-none-eabi/bin/../lib/gcc/arm-none-eabi/7.3.1/../../../../arm-none-eabi/lib/thumb/v7e-m/fpv4-sp/hard\libc_nano.a(lib_a-sprintf.o)
 .text          0x00000000        0x0 c:/stm32/gcc-arm-none-eabi/bin/../lib/gcc/arm-none-eabi/7.3.1/../../../../arm-none-eabi/lib/thumb/v7e-m/fpv4-sp/hard\libc_nano.a(lib_a-strchr.o)
 .data          0x00000000        0x0 c:/stm32/gcc-arm-none-eabi/bin/../lib/gcc/arm-none-eabi/7.3.1/../../../../arm-none-eabi/lib/thumb/v7e-m/fpv4-sp/hard\libc_nano.a(lib_a-strchr.o)
 .bss           0x00000000        0x0 c:/stm32/gcc-arm-none-eabi/bin/../lib/gcc/arm-none-eabi/7.3.1/../../../../arm-none-eabi/lib/thumb/v7e-m/fpv4-sp/hard\libc_nano.a(lib_a-strchr.o)
 .text.strchr   0x00000000       0x1a c:/stm32/gcc-arm-none-eabi/bin/../lib/gcc/arm-none-eabi/7.3.1/../../../../arm-none-eabi/lib/thumb/v7e-m/fpv4-sp/hard\libc_nano.a(lib_a-strchr.o)
 .debug_frame   0x00000000       0x20 c:/stm32/gcc-arm-none-eabi/bin/../lib/gcc/arm-none-eabi/7.3.1/../../../../arm-none-eabi/lib/thumb/v7e-m/fpv4-sp/hard\libc_nano.a(lib_a-strchr.o)
 .ARM.attributes
                0x00000000       0x34 c:/stm32/gcc-arm-none-eabi/bin/../lib/gcc/arm-none-eabi/7.3.1/../../../../arm-none-eabi/lib/thumb/v7e-m/fpv4-sp/hard\libc_nano.a(lib_a-strchr.o)
 .data          0x00000000        0x0 c:/stm32/gcc-arm-none-eabi/bin/../lib/gcc/arm-none-eabi/7.3.1/../../../../arm-none-eabi/lib/thumb/v7e-m/fpv4-sp/hard\libc_nano.a(lib_a-strcmp.o)
 .bss           0x00000000        0x0 c:/stm32/gcc-arm-none-eabi/bin/../lib/gcc/arm-none-eabi/7.3.1/../../../../arm-none-eabi/lib/thumb/v7e-m/fpv4-sp/hard\libc_nano.a(lib_a-strcmp.o)
 .text          0x00000000        0x0 c:/stm32/gcc-arm-none-eabi/bin/../lib/gcc/arm-none-eabi/7.3.1/../../../../arm-none-eabi/lib/thumb/v7e-m/fpv4-sp/hard\libc_nano.a(lib_a-strcpy.o)
 .data          0x00000000        0x0 c:/stm32/gcc-arm-none-eabi/bin/../lib/gcc/arm-none-eabi/7.3.1/../../../../arm-none-eabi/lib/thumb/v7e-m/fpv4-sp/hard\libc_nano.a(lib_a-strcpy.o)
 .bss           0x00000000        0x0 c:/stm32/gcc-arm-none-eabi/bin/../lib/gcc/arm-none-eabi/7.3.1/../../../../arm-none-eabi/lib/thumb/v7e-m/fpv4-sp/hard\libc_nano.a(lib_a-strcpy.o)
 .text.strcpy   0x00000000       0x10 c:/stm32/gcc-arm-none-eabi/bin/../lib/gcc/arm-none-eabi/7.3.1/../../../../arm-none-eabi/lib/thumb/v7e-m/fpv4-sp/hard\libc_nano.a(lib_a-strcpy.o)
 .debug_frame   0x00000000       0x20 c:/stm32/gcc-arm-none-eabi/bin/../lib/gcc/arm-none-eabi/7.3.1/../../../../arm-none-eabi/lib/thumb/v7e-m/fpv4-sp/hard\libc_nano.a(lib_a-strcpy.o)
 .ARM.attributes
                0x00000000       0x34 c:/stm32/gcc-arm-none-eabi/bin/../lib/gcc/arm-none-eabi/7.3.1/../../../../arm-none-eabi/lib/thumb/v7e-m/fpv4-sp/hard\libc_nano.a(lib_a-strcpy.o)
 .data          0x00000000        0x0 c:/stm32/gcc-arm-none-eabi/bin/../lib/gcc/arm-none-eabi/7.3.1/../../../../arm-none-eabi/lib/thumb/v7e-m/fpv4-sp/hard\libc_nano.a(lib_a-strlen.o)
 .bss           0x00000000        0x0 c:/stm32/gcc-arm-none-eabi/bin/../lib/gcc/arm-none-eabi/7.3.1/../../../../arm-none-eabi/lib/thumb/v7e-m/fpv4-sp/hard\libc_nano.a(lib_a-strlen.o)
 .text          0x00000000        0x0 c:/stm32/gcc-arm-none-eabi/bin/../lib/gcc/arm-none-eabi/7.3.1/../../../../arm-none-eabi/lib/thumb/v7e-m/fpv4-sp/hard\libc_nano.a(lib_a-strncmp.o)
 .data          0x00000000        0x0 c:/stm32/gcc-arm-none-eabi/bin/../lib/gcc/arm-none-eabi/7.3.1/../../../../arm-none-eabi/lib/thumb/v7e-m/fpv4-sp/hard\libc_nano.a(lib_a-strncmp.o)
 .bss           0x00000000        0x0 c:/stm32/gcc-arm-none-eabi/bin/../lib/gcc/arm-none-eabi/7.3.1/../../../../arm-none-eabi/lib/thumb/v7e-m/fpv4-sp/hard\libc_nano.a(lib_a-strncmp.o)
 .text.strncmp  0x00000000       0x24 c:/stm32/gcc-arm-none-eabi/bin/../lib/gcc/arm-none-eabi/7.3.1/../../../../arm-none-eabi/lib/thumb/v7e-m/fpv4-sp/hard\libc_nano.a(lib_a-strncmp.o)
 .debug_frame   0x00000000       0x28 c:/stm32/gcc-arm-none-eabi/bin/../lib/gcc/arm-none-eabi/7.3.1/../../../../arm-none-eabi/lib/thumb/v7e-m/fpv4-sp/hard\libc_nano.a(lib_a-strncmp.o)
 .ARM.attributes
                0x00000000       0x34 c:/stm32/gcc-arm-none-eabi/bin/../lib/gcc/arm-none-eabi/7.3.1/../../../../arm-none-eabi/lib/thumb/v7e-m/fpv4-sp/hard\libc_nano.a(lib_a-strncmp.o)
 .text          0x00000000        0x0 c:/stm32/gcc-arm-none-eabi/bin/../lib/gcc/arm-none-eabi/7.3.1/../../../../arm-none-eabi/lib/thumb/v7e-m/fpv4-sp/hard\libc_nano.a(lib_a-strncpy.o)
 .data          0x00000000        0x0 c:/stm32/gcc-arm-none-eabi/bin/../lib/gcc/arm-none-eabi/7.3.1/../../../../arm-none-eabi/lib/thumb/v7e-m/fpv4-sp/hard\libc_nano.a(lib_a-strncpy.o)
 .bss           0x00000000        0x0 c:/stm32/gcc-arm-none-eabi/bin/../lib/gcc/arm-none-eabi/7.3.1/../../../../arm-none-eabi/lib/thumb/v7e-m/fpv4-sp/hard\libc_nano.a(lib_a-strncpy.o)
 .text.strncpy  0x00000000       0x2a c:/stm32/gcc-arm-none-eabi/bin/../lib/gcc/arm-none-eabi/7.3.1/../../../../arm-none-eabi/lib/thumb/v7e-m/fpv4-sp/hard\libc_nano.a(lib_a-strncpy.o)
 .debug_frame   0x00000000       0x2c c:/stm32/gcc-arm-none-eabi/bin/../lib/gcc/arm-none-eabi/7.3.1/../../../../arm-none-eabi/lib/thumb/v7e-m/fpv4-sp/hard\libc_nano.a(lib_a-strncpy.o)
 .ARM.attributes
                0x00000000       0x34 c:/stm32/gcc-arm-none-eabi/bin/../lib/gcc/arm-none-eabi/7.3.1/../../../../arm-none-eabi/lib/thumb/v7e-m/fpv4-sp/hard\libc_nano.a(lib_a-strncpy.o)
 .text          0x00000000        0x0 c:/stm32/gcc-arm-none-eabi/bin/../lib/gcc/arm-none-eabi/7.3.1/../../../../arm-none-eabi/lib/thumb/v7e-m/fpv4-sp/hard\libc_nano.a(lib_a-strrchr.o)
 .data          0x00000000        0x0 c:/stm32/gcc-arm-none-eabi/bin/../lib/gcc/arm-none-eabi/7.3.1/../../../../arm-none-eabi/lib/thumb/v7e-m/fpv4-sp/hard\libc_nano.a(lib_a-strrchr.o)
 .bss           0x00000000        0x0 c:/stm32/gcc-arm-none-eabi/bin/../lib/gcc/arm-none-eabi/7.3.1/../../../../arm-none-eabi/lib/thumb/v7e-m/fpv4-sp/hard\libc_nano.a(lib_a-strrchr.o)
 .text.strrchr  0x00000000       0x28 c:/stm32/gcc-arm-none-eabi/bin/../lib/gcc/arm-none-eabi/7.3.1/../../../../arm-none-eabi/lib/thumb/v7e-m/fpv4-sp/hard\libc_nano.a(lib_a-strrchr.o)
 .debug_frame   0x00000000       0x38 c:/stm32/gcc-arm-none-eabi/bin/../lib/gcc/arm-none-eabi/7.3.1/../../../../arm-none-eabi/lib/thumb/v7e-m/fpv4-sp/hard\libc_nano.a(lib_a-strrchr.o)
 .ARM.attributes
                0x00000000       0x34 c:/stm32/gcc-arm-none-eabi/bin/../lib/gcc/arm-none-eabi/7.3.1/../../../../arm-none-eabi/lib/thumb/v7e-m/fpv4-sp/hard\libc_nano.a(lib_a-strrchr.o)
 .text          0x00000000        0x0 c:/stm32/gcc-arm-none-eabi/bin/../lib/gcc/arm-none-eabi/7.3.1/../../../../arm-none-eabi/lib/thumb/v7e-m/fpv4-sp/hard\libc_nano.a(lib_a-strstr.o)
 .data          0x00000000        0x0 c:/stm32/gcc-arm-none-eabi/bin/../lib/gcc/arm-none-eabi/7.3.1/../../../../arm-none-eabi/lib/thumb/v7e-m/fpv4-sp/hard\libc_nano.a(lib_a-strstr.o)
 .bss           0x00000000        0x0 c:/stm32/gcc-arm-none-eabi/bin/../lib/gcc/arm-none-eabi/7.3.1/../../../../arm-none-eabi/lib/thumb/v7e-m/fpv4-sp/hard\libc_nano.a(lib_a-strstr.o)
 .text.strstr   0x00000000       0x34 c:/stm32/gcc-arm-none-eabi/bin/../lib/gcc/arm-none-eabi/7.3.1/../../../../arm-none-eabi/lib/thumb/v7e-m/fpv4-sp/hard\libc_nano.a(lib_a-strstr.o)
 .debug_frame   0x00000000       0x30 c:/stm32/gcc-arm-none-eabi/bin/../lib/gcc/arm-none-eabi/7.3.1/../../../../arm-none-eabi/lib/thumb/v7e-m/fpv4-sp/hard\libc_nano.a(lib_a-strstr.o)
 .ARM.attributes
                0x00000000       0x34 c:/stm32/gcc-arm-none-eabi/bin/../lib/gcc/arm-none-eabi/7.3.1/../../../../arm-none-eabi/lib/thumb/v7e-m/fpv4-sp/hard\libc_nano.a(lib_a-strstr.o)
 .text          0x00000000        0x0 c:/stm32/gcc-arm-none-eabi/bin/../lib/gcc/arm-none-eabi/7.3.1/../../../../arm-none-eabi/lib/thumb/v7e-m/fpv4-sp/hard\libc_nano.a(lib_a-strtod.o)
 .data          0x00000000        0x0 c:/stm32/gcc-arm-none-eabi/bin/../lib/gcc/arm-none-eabi/7.3.1/../../../../arm-none-eabi/lib/thumb/v7e-m/fpv4-sp/hard\libc_nano.a(lib_a-strtod.o)
 .bss           0x00000000        0x0 c:/stm32/gcc-arm-none-eabi/bin/../lib/gcc/arm-none-eabi/7.3.1/../../../../arm-none-eabi/lib/thumb/v7e-m/fpv4-sp/hard\libc_nano.a(lib_a-strtod.o)
 .text.unlikely.sulp
                0x00000000       0x38 c:/stm32/gcc-arm-none-eabi/bin/../lib/gcc/arm-none-eabi/7.3.1/../../../../arm-none-eabi/lib/thumb/v7e-m/fpv4-sp/hard\libc_nano.a(lib_a-strtod.o)
 .text._strtod_l
                0x00000000      0xbe8 c:/stm32/gcc-arm-none-eabi/bin/../lib/gcc/arm-none-eabi/7.3.1/../../../../arm-none-eabi/lib/thumb/v7e-m/fpv4-sp/hard\libc_nano.a(lib_a-strtod.o)
 .text._strtod_r
                0x00000000       0x20 c:/stm32/gcc-arm-none-eabi/bin/../lib/gcc/arm-none-eabi/7.3.1/../../../../arm-none-eabi/lib/thumb/v7e-m/fpv4-sp/hard\libc_nano.a(lib_a-strtod.o)
 .text.strtod_l
                0x00000000       0x14 c:/stm32/gcc-arm-none-eabi/bin/../lib/gcc/arm-none-eabi/7.3.1/../../../../arm-none-eabi/lib/thumb/v7e-m/fpv4-sp/hard\libc_nano.a(lib_a-strtod.o)
 .text.strtod   0x00000000       0x28 c:/stm32/gcc-arm-none-eabi/bin/../lib/gcc/arm-none-eabi/7.3.1/../../../../arm-none-eabi/lib/thumb/v7e-m/fpv4-sp/hard\libc_nano.a(lib_a-strtod.o)
 .text.strtof_l
                0x00000000       0x9c c:/stm32/gcc-arm-none-eabi/bin/../lib/gcc/arm-none-eabi/7.3.1/../../../../arm-none-eabi/lib/thumb/v7e-m/fpv4-sp/hard\libc_nano.a(lib_a-strtod.o)
 .text.strtof   0x00000000       0xa8 c:/stm32/gcc-arm-none-eabi/bin/../lib/gcc/arm-none-eabi/7.3.1/../../../../arm-none-eabi/lib/thumb/v7e-m/fpv4-sp/hard\libc_nano.a(lib_a-strtod.o)
 .rodata._strtod_l.str1.1
                0x00000000        0xc c:/stm32/gcc-arm-none-eabi/bin/../lib/gcc/arm-none-eabi/7.3.1/../../../../arm-none-eabi/lib/thumb/v7e-m/fpv4-sp/hard\libc_nano.a(lib_a-strtod.o)
 .rodata.fpi.7435
                0x00000000       0x14 c:/stm32/gcc-arm-none-eabi/bin/../lib/gcc/arm-none-eabi/7.3.1/../../../../arm-none-eabi/lib/thumb/v7e-m/fpv4-sp/hard\libc_nano.a(lib_a-strtod.o)
 .rodata.fpinan.7471
                0x00000000       0x14 c:/stm32/gcc-arm-none-eabi/bin/../lib/gcc/arm-none-eabi/7.3.1/../../../../arm-none-eabi/lib/thumb/v7e-m/fpv4-sp/hard\libc_nano.a(lib_a-strtod.o)
 .rodata.tinytens
                0x00000000       0x28 c:/stm32/gcc-arm-none-eabi/bin/../lib/gcc/arm-none-eabi/7.3.1/../../../../arm-none-eabi/lib/thumb/v7e-m/fpv4-sp/hard\libc_nano.a(lib_a-strtod.o)
 .debug_frame   0x00000000      0x12c c:/stm32/gcc-arm-none-eabi/bin/../lib/gcc/arm-none-eabi/7.3.1/../../../../arm-none-eabi/lib/thumb/v7e-m/fpv4-sp/hard\libc_nano.a(lib_a-strtod.o)
 .ARM.attributes
                0x00000000       0x34 c:/stm32/gcc-arm-none-eabi/bin/../lib/gcc/arm-none-eabi/7.3.1/../../../../arm-none-eabi/lib/thumb/v7e-m/fpv4-sp/hard\libc_nano.a(lib_a-strtod.o)
 .text          0x00000000        0x0 c:/stm32/gcc-arm-none-eabi/bin/../lib/gcc/arm-none-eabi/7.3.1/../../../../arm-none-eabi/lib/thumb/v7e-m/fpv4-sp/hard\libc_nano.a(lib_a-strtol.o)
 .data          0x00000000        0x0 c:/stm32/gcc-arm-none-eabi/bin/../lib/gcc/arm-none-eabi/7.3.1/../../../../arm-none-eabi/lib/thumb/v7e-m/fpv4-sp/hard\libc_nano.a(lib_a-strtol.o)
 .bss           0x00000000        0x0 c:/stm32/gcc-arm-none-eabi/bin/../lib/gcc/arm-none-eabi/7.3.1/../../../../arm-none-eabi/lib/thumb/v7e-m/fpv4-sp/hard\libc_nano.a(lib_a-strtol.o)
 .text._strtol_l.isra.0
                0x00000000       0xf6 c:/stm32/gcc-arm-none-eabi/bin/../lib/gcc/arm-none-eabi/7.3.1/../../../../arm-none-eabi/lib/thumb/v7e-m/fpv4-sp/hard\libc_nano.a(lib_a-strtol.o)
 .text._strtol_r
                0x00000000       0x24 c:/stm32/gcc-arm-none-eabi/bin/../lib/gcc/arm-none-eabi/7.3.1/../../../../arm-none-eabi/lib/thumb/v7e-m/fpv4-sp/hard\libc_nano.a(lib_a-strtol.o)
 .text.strtol_l
                0x00000000       0x1c c:/stm32/gcc-arm-none-eabi/bin/../lib/gcc/arm-none-eabi/7.3.1/../../../../arm-none-eabi/lib/thumb/v7e-m/fpv4-sp/hard\libc_nano.a(lib_a-strtol.o)
 .text.strtol   0x00000000       0x2c c:/stm32/gcc-arm-none-eabi/bin/../lib/gcc/arm-none-eabi/7.3.1/../../../../arm-none-eabi/lib/thumb/v7e-m/fpv4-sp/hard\libc_nano.a(lib_a-strtol.o)
 .debug_frame   0x00000000       0x84 c:/stm32/gcc-arm-none-eabi/bin/../lib/gcc/arm-none-eabi/7.3.1/../../../../arm-none-eabi/lib/thumb/v7e-m/fpv4-sp/hard\libc_nano.a(lib_a-strtol.o)
 .ARM.attributes
                0x00000000       0x34 c:/stm32/gcc-arm-none-eabi/bin/../lib/gcc/arm-none-eabi/7.3.1/../../../../arm-none-eabi/lib/thumb/v7e-m/fpv4-sp/hard\libc_nano.a(lib_a-strtol.o)
 .text          0x00000000        0x0 c:/stm32/gcc-arm-none-eabi/bin/../lib/gcc/arm-none-eabi/7.3.1/../../../../arm-none-eabi/lib/thumb/v7e-m/fpv4-sp/hard\libc_nano.a(lib_a-tolower.o)
 .data          0x00000000        0x0 c:/stm32/gcc-arm-none-eabi/bin/../lib/gcc/arm-none-eabi/7.3.1/../../../../arm-none-eabi/lib/thumb/v7e-m/fpv4-sp/hard\libc_nano.a(lib_a-tolower.o)
 .bss           0x00000000        0x0 c:/stm32/gcc-arm-none-eabi/bin/../lib/gcc/arm-none-eabi/7.3.1/../../../../arm-none-eabi/lib/thumb/v7e-m/fpv4-sp/hard\libc_nano.a(lib_a-tolower.o)
 .text.tolower  0x00000000       0x1a c:/stm32/gcc-arm-none-eabi/bin/../lib/gcc/arm-none-eabi/7.3.1/../../../../arm-none-eabi/lib/thumb/v7e-m/fpv4-sp/hard\libc_nano.a(lib_a-tolower.o)
 .debug_frame   0x00000000       0x28 c:/stm32/gcc-arm-none-eabi/bin/../lib/gcc/arm-none-eabi/7.3.1/../../../../arm-none-eabi/lib/thumb/v7e-m/fpv4-sp/hard\libc_nano.a(lib_a-tolower.o)
 .ARM.attributes
                0x00000000       0x34 c:/stm32/gcc-arm-none-eabi/bin/../lib/gcc/arm-none-eabi/7.3.1/../../../../arm-none-eabi/lib/thumb/v7e-m/fpv4-sp/hard\libc_nano.a(lib_a-tolower.o)
 .text          0x00000000        0x0 c:/stm32/gcc-arm-none-eabi/bin/../lib/gcc/arm-none-eabi/7.3.1/../../../../arm-none-eabi/lib/thumb/v7e-m/fpv4-sp/hard\libc_nano.a(lib_a-toupper.o)
 .data          0x00000000        0x0 c:/stm32/gcc-arm-none-eabi/bin/../lib/gcc/arm-none-eabi/7.3.1/../../../../arm-none-eabi/lib/thumb/v7e-m/fpv4-sp/hard\libc_nano.a(lib_a-toupper.o)
 .bss           0x00000000        0x0 c:/stm32/gcc-arm-none-eabi/bin/../lib/gcc/arm-none-eabi/7.3.1/../../../../arm-none-eabi/lib/thumb/v7e-m/fpv4-sp/hard\libc_nano.a(lib_a-toupper.o)
 .text.toupper  0x00000000       0x1a c:/stm32/gcc-arm-none-eabi/bin/../lib/gcc/arm-none-eabi/7.3.1/../../../../arm-none-eabi/lib/thumb/v7e-m/fpv4-sp/hard\libc_nano.a(lib_a-toupper.o)
 .debug_frame   0x00000000       0x28 c:/stm32/gcc-arm-none-eabi/bin/../lib/gcc/arm-none-eabi/7.3.1/../../../../arm-none-eabi/lib/thumb/v7e-m/fpv4-sp/hard\libc_nano.a(lib_a-toupper.o)
 .ARM.attributes
                0x00000000       0x34 c:/stm32/gcc-arm-none-eabi/bin/../lib/gcc/arm-none-eabi/7.3.1/../../../../arm-none-eabi/lib/thumb/v7e-m/fpv4-sp/hard\libc_nano.a(lib_a-toupper.o)
 .text          0x00000000        0x0 c:/stm32/gcc-arm-none-eabi/bin/../lib/gcc/arm-none-eabi/7.3.1/../../../../arm-none-eabi/lib/thumb/v7e-m/fpv4-sp/hard\libc_nano.a(lib_a-wctomb_r.o)
 .data          0x00000000        0x0 c:/stm32/gcc-arm-none-eabi/bin/../lib/gcc/arm-none-eabi/7.3.1/../../../../arm-none-eabi/lib/thumb/v7e-m/fpv4-sp/hard\libc_nano.a(lib_a-wctomb_r.o)
 .bss           0x00000000        0x0 c:/stm32/gcc-arm-none-eabi/bin/../lib/gcc/arm-none-eabi/7.3.1/../../../../arm-none-eabi/lib/thumb/v7e-m/fpv4-sp/hard\libc_nano.a(lib_a-wctomb_r.o)
 .text._wctomb_r
                0x00000000       0x24 c:/stm32/gcc-arm-none-eabi/bin/../lib/gcc/arm-none-eabi/7.3.1/../../../../arm-none-eabi/lib/thumb/v7e-m/fpv4-sp/hard\libc_nano.a(lib_a-wctomb_r.o)
 .text.__ascii_wctomb
                0x00000000       0x1a c:/stm32/gcc-arm-none-eabi/bin/../lib/gcc/arm-none-eabi/7.3.1/../../../../arm-none-eabi/lib/thumb/v7e-m/fpv4-sp/hard\libc_nano.a(lib_a-wctomb_r.o)
 .debug_frame   0x00000000       0x3c c:/stm32/gcc-arm-none-eabi/bin/../lib/gcc/arm-none-eabi/7.3.1/../../../../arm-none-eabi/lib/thumb/v7e-m/fpv4-sp/hard\libc_nano.a(lib_a-wctomb_r.o)
 .ARM.attributes
                0x00000000       0x34 c:/stm32/gcc-arm-none-eabi/bin/../lib/gcc/arm-none-eabi/7.3.1/../../../../arm-none-eabi/lib/thumb/v7e-m/fpv4-sp/hard\libc_nano.a(lib_a-wctomb_r.o)
 .text          0x00000000        0x0 c:/stm32/gcc-arm-none-eabi/bin/../lib/gcc/arm-none-eabi/7.3.1/../../../../arm-none-eabi/lib/thumb/v7e-m/fpv4-sp/hard\libc_nano.a(lib_a-ctype_.o)
 .data          0x00000000        0x0 c:/stm32/gcc-arm-none-eabi/bin/../lib/gcc/arm-none-eabi/7.3.1/../../../../arm-none-eabi/lib/thumb/v7e-m/fpv4-sp/hard\libc_nano.a(lib_a-ctype_.o)
 .bss           0x00000000        0x0 c:/stm32/gcc-arm-none-eabi/bin/../lib/gcc/arm-none-eabi/7.3.1/../../../../arm-none-eabi/lib/thumb/v7e-m/fpv4-sp/hard\libc_nano.a(lib_a-ctype_.o)
 .rodata._ctype_
                0x00000000      0x101 c:/stm32/gcc-arm-none-eabi/bin/../lib/gcc/arm-none-eabi/7.3.1/../../../../arm-none-eabi/lib/thumb/v7e-m/fpv4-sp/hard\libc_nano.a(lib_a-ctype_.o)
 .ARM.attributes
                0x00000000       0x34 c:/stm32/gcc-arm-none-eabi/bin/../lib/gcc/arm-none-eabi/7.3.1/../../../../arm-none-eabi/lib/thumb/v7e-m/fpv4-sp/hard\libc_nano.a(lib_a-ctype_.o)
 .text          0x00000000        0x0 c:/stm32/gcc-arm-none-eabi/bin/../lib/gcc/arm-none-eabi/7.3.1/../../../../arm-none-eabi/lib/thumb/v7e-m/fpv4-sp/hard\libc_nano.a(lib_a-gdtoa-gethex.o)
 .data          0x00000000        0x0 c:/stm32/gcc-arm-none-eabi/bin/../lib/gcc/arm-none-eabi/7.3.1/../../../../arm-none-eabi/lib/thumb/v7e-m/fpv4-sp/hard\libc_nano.a(lib_a-gdtoa-gethex.o)
 .bss           0x00000000        0x0 c:/stm32/gcc-arm-none-eabi/bin/../lib/gcc/arm-none-eabi/7.3.1/../../../../arm-none-eabi/lib/thumb/v7e-m/fpv4-sp/hard\libc_nano.a(lib_a-gdtoa-gethex.o)
 .text.rshift   0x00000000       0x74 c:/stm32/gcc-arm-none-eabi/bin/../lib/gcc/arm-none-eabi/7.3.1/../../../../arm-none-eabi/lib/thumb/v7e-m/fpv4-sp/hard\libc_nano.a(lib_a-gdtoa-gethex.o)
 .text.__hexdig_fun
                0x00000000       0x2a c:/stm32/gcc-arm-none-eabi/bin/../lib/gcc/arm-none-eabi/7.3.1/../../../../arm-none-eabi/lib/thumb/v7e-m/fpv4-sp/hard\libc_nano.a(lib_a-gdtoa-gethex.o)
 .text.__gethex
                0x00000000      0x442 c:/stm32/gcc-arm-none-eabi/bin/../lib/gcc/arm-none-eabi/7.3.1/../../../../arm-none-eabi/lib/thumb/v7e-m/fpv4-sp/hard\libc_nano.a(lib_a-gdtoa-gethex.o)
 .debug_frame   0x00000000       0x70 c:/stm32/gcc-arm-none-eabi/bin/../lib/gcc/arm-none-eabi/7.3.1/../../../../arm-none-eabi/lib/thumb/v7e-m/fpv4-sp/hard\libc_nano.a(lib_a-gdtoa-gethex.o)
 .ARM.attributes
                0x00000000       0x34 c:/stm32/gcc-arm-none-eabi/bin/../lib/gcc/arm-none-eabi/7.3.1/../../../../arm-none-eabi/lib/thumb/v7e-m/fpv4-sp/hard\libc_nano.a(lib_a-gdtoa-gethex.o)
 .text          0x00000000        0x0 c:/stm32/gcc-arm-none-eabi/bin/../lib/gcc/arm-none-eabi/7.3.1/../../../../arm-none-eabi/lib/thumb/v7e-m/fpv4-sp/hard\libc_nano.a(lib_a-gdtoa-hexnan.o)
 .data          0x00000000        0x0 c:/stm32/gcc-arm-none-eabi/bin/../lib/gcc/arm-none-eabi/7.3.1/../../../../arm-none-eabi/lib/thumb/v7e-m/fpv4-sp/hard\libc_nano.a(lib_a-gdtoa-hexnan.o)
 .bss           0x00000000        0x0 c:/stm32/gcc-arm-none-eabi/bin/../lib/gcc/arm-none-eabi/7.3.1/../../../../arm-none-eabi/lib/thumb/v7e-m/fpv4-sp/hard\libc_nano.a(lib_a-gdtoa-hexnan.o)
 .text.L_shift  0x00000000       0x24 c:/stm32/gcc-arm-none-eabi/bin/../lib/gcc/arm-none-eabi/7.3.1/../../../../arm-none-eabi/lib/thumb/v7e-m/fpv4-sp/hard\libc_nano.a(lib_a-gdtoa-hexnan.o)
 .text.__match  0x00000000       0x28 c:/stm32/gcc-arm-none-eabi/bin/../lib/gcc/arm-none-eabi/7.3.1/../../../../arm-none-eabi/lib/thumb/v7e-m/fpv4-sp/hard\libc_nano.a(lib_a-gdtoa-hexnan.o)
 .text.__hexnan
                0x00000000      0x120 c:/stm32/gcc-arm-none-eabi/bin/../lib/gcc/arm-none-eabi/7.3.1/../../../../arm-none-eabi/lib/thumb/v7e-m/fpv4-sp/hard\libc_nano.a(lib_a-gdtoa-hexnan.o)
 .debug_frame   0x00000000       0x74 c:/stm32/gcc-arm-none-eabi/bin/../lib/gcc/arm-none-eabi/7.3.1/../../../../arm-none-eabi/lib/thumb/v7e-m/fpv4-sp/hard\libc_nano.a(lib_a-gdtoa-hexnan.o)
 .ARM.attributes
                0x00000000       0x34 c:/stm32/gcc-arm-none-eabi/bin/../lib/gcc/arm-none-eabi/7.3.1/../../../../arm-none-eabi/lib/thumb/v7e-m/fpv4-sp/hard\libc_nano.a(lib_a-gdtoa-hexnan.o)
 .text          0x00000000        0x0 c:/stm32/gcc-arm-none-eabi/bin/../lib/gcc/arm-none-eabi/7.3.1/../../../../arm-none-eabi/lib/thumb/v7e-m/fpv4-sp/hard\libc_nano.a(lib_a-localeconv.o)
 .data          0x00000000        0x0 c:/stm32/gcc-arm-none-eabi/bin/../lib/gcc/arm-none-eabi/7.3.1/../../../../arm-none-eabi/lib/thumb/v7e-m/fpv4-sp/hard\libc_nano.a(lib_a-localeconv.o)
 .bss           0x00000000        0x0 c:/stm32/gcc-arm-none-eabi/bin/../lib/gcc/arm-none-eabi/7.3.1/../../../../arm-none-eabi/lib/thumb/v7e-m/fpv4-sp/hard\libc_nano.a(lib_a-localeconv.o)
 .text.__localeconv_l
                0x00000000        0x4 c:/stm32/gcc-arm-none-eabi/bin/../lib/gcc/arm-none-eabi/7.3.1/../../../../arm-none-eabi/lib/thumb/v7e-m/fpv4-sp/hard\libc_nano.a(lib_a-localeconv.o)
 .text._localeconv_r
                0x00000000       0x1c c:/stm32/gcc-arm-none-eabi/bin/../lib/gcc/arm-none-eabi/7.3.1/../../../../arm-none-eabi/lib/thumb/v7e-m/fpv4-sp/hard\libc_nano.a(lib_a-localeconv.o)
 .text.localeconv
                0x00000000       0x1c c:/stm32/gcc-arm-none-eabi/bin/../lib/gcc/arm-none-eabi/7.3.1/../../../../arm-none-eabi/lib/thumb/v7e-m/fpv4-sp/hard\libc_nano.a(lib_a-localeconv.o)
 .debug_frame   0x00000000       0x40 c:/stm32/gcc-arm-none-eabi/bin/../lib/gcc/arm-none-eabi/7.3.1/../../../../arm-none-eabi/lib/thumb/v7e-m/fpv4-sp/hard\libc_nano.a(lib_a-localeconv.o)
 .ARM.attributes
                0x00000000       0x34 c:/stm32/gcc-arm-none-eabi/bin/../lib/gcc/arm-none-eabi/7.3.1/../../../../arm-none-eabi/lib/thumb/v7e-m/fpv4-sp/hard\libc_nano.a(lib_a-localeconv.o)
 .text          0x00000000        0x0 c:/stm32/gcc-arm-none-eabi/bin/../lib/gcc/arm-none-eabi/7.3.1/../../../../arm-none-eabi/lib/thumb/v7e-m/fpv4-sp/hard\libc_nano.a(lib_a-mlock.o)
 .data          0x00000000        0x0 c:/stm32/gcc-arm-none-eabi/bin/../lib/gcc/arm-none-eabi/7.3.1/../../../../arm-none-eabi/lib/thumb/v7e-m/fpv4-sp/hard\libc_nano.a(lib_a-mlock.o)
 .bss           0x00000000        0x0 c:/stm32/gcc-arm-none-eabi/bin/../lib/gcc/arm-none-eabi/7.3.1/../../../../arm-none-eabi/lib/thumb/v7e-m/fpv4-sp/hard\libc_nano.a(lib_a-mlock.o)
 .text          0x00000000        0x0 c:/stm32/gcc-arm-none-eabi/bin/../lib/gcc/arm-none-eabi/7.3.1/../../../../arm-none-eabi/lib/thumb/v7e-m/fpv4-sp/hard\libc_nano.a(lib_a-mprec.o)
 .data          0x00000000        0x0 c:/stm32/gcc-arm-none-eabi/bin/../lib/gcc/arm-none-eabi/7.3.1/../../../../arm-none-eabi/lib/thumb/v7e-m/fpv4-sp/hard\libc_nano.a(lib_a-mprec.o)
 .bss           0x00000000        0x0 c:/stm32/gcc-arm-none-eabi/bin/../lib/gcc/arm-none-eabi/7.3.1/../../../../arm-none-eabi/lib/thumb/v7e-m/fpv4-sp/hard\libc_nano.a(lib_a-mprec.o)
 .text._Balloc  0x00000000       0x68 c:/stm32/gcc-arm-none-eabi/bin/../lib/gcc/arm-none-eabi/7.3.1/../../../../arm-none-eabi/lib/thumb/v7e-m/fpv4-sp/hard\libc_nano.a(lib_a-mprec.o)
 .text._Bfree   0x00000000       0x2e c:/stm32/gcc-arm-none-eabi/bin/../lib/gcc/arm-none-eabi/7.3.1/../../../../arm-none-eabi/lib/thumb/v7e-m/fpv4-sp/hard\libc_nano.a(lib_a-mprec.o)
 .text.__multadd
                0x00000000       0x76 c:/stm32/gcc-arm-none-eabi/bin/../lib/gcc/arm-none-eabi/7.3.1/../../../../arm-none-eabi/lib/thumb/v7e-m/fpv4-sp/hard\libc_nano.a(lib_a-mprec.o)
 .text.__s2b    0x00000000       0x7c c:/stm32/gcc-arm-none-eabi/bin/../lib/gcc/arm-none-eabi/7.3.1/../../../../arm-none-eabi/lib/thumb/v7e-m/fpv4-sp/hard\libc_nano.a(lib_a-mprec.o)
 .text.__hi0bits
                0x00000000       0x3e c:/stm32/gcc-arm-none-eabi/bin/../lib/gcc/arm-none-eabi/7.3.1/../../../../arm-none-eabi/lib/thumb/v7e-m/fpv4-sp/hard\libc_nano.a(lib_a-mprec.o)
 .text.__lo0bits
                0x00000000       0x5e c:/stm32/gcc-arm-none-eabi/bin/../lib/gcc/arm-none-eabi/7.3.1/../../../../arm-none-eabi/lib/thumb/v7e-m/fpv4-sp/hard\libc_nano.a(lib_a-mprec.o)
 .text.__i2b    0x00000000       0x12 c:/stm32/gcc-arm-none-eabi/bin/../lib/gcc/arm-none-eabi/7.3.1/../../../../arm-none-eabi/lib/thumb/v7e-m/fpv4-sp/hard\libc_nano.a(lib_a-mprec.o)
 .text.__multiply
                0x00000000      0x12c c:/stm32/gcc-arm-none-eabi/bin/../lib/gcc/arm-none-eabi/7.3.1/../../../../arm-none-eabi/lib/thumb/v7e-m/fpv4-sp/hard\libc_nano.a(lib_a-mprec.o)
 .text.__pow5mult
                0x00000000       0x9c c:/stm32/gcc-arm-none-eabi/bin/../lib/gcc/arm-none-eabi/7.3.1/../../../../arm-none-eabi/lib/thumb/v7e-m/fpv4-sp/hard\libc_nano.a(lib_a-mprec.o)
 .text.__lshift
                0x00000000       0xa8 c:/stm32/gcc-arm-none-eabi/bin/../lib/gcc/arm-none-eabi/7.3.1/../../../../arm-none-eabi/lib/thumb/v7e-m/fpv4-sp/hard\libc_nano.a(lib_a-mprec.o)
 .text.__mcmp   0x00000000       0x34 c:/stm32/gcc-arm-none-eabi/bin/../lib/gcc/arm-none-eabi/7.3.1/../../../../arm-none-eabi/lib/thumb/v7e-m/fpv4-sp/hard\libc_nano.a(lib_a-mprec.o)
 .text.__mdiff  0x00000000       0xba c:/stm32/gcc-arm-none-eabi/bin/../lib/gcc/arm-none-eabi/7.3.1/../../../../arm-none-eabi/lib/thumb/v7e-m/fpv4-sp/hard\libc_nano.a(lib_a-mprec.o)
 .text.__ulp    0x00000000       0x50 c:/stm32/gcc-arm-none-eabi/bin/../lib/gcc/arm-none-eabi/7.3.1/../../../../arm-none-eabi/lib/thumb/v7e-m/fpv4-sp/hard\libc_nano.a(lib_a-mprec.o)
 .text.__b2d    0x00000000       0x9c c:/stm32/gcc-arm-none-eabi/bin/../lib/gcc/arm-none-eabi/7.3.1/../../../../arm-none-eabi/lib/thumb/v7e-m/fpv4-sp/hard\libc_nano.a(lib_a-mprec.o)
 .text.__d2b    0x00000000       0x9e c:/stm32/gcc-arm-none-eabi/bin/../lib/gcc/arm-none-eabi/7.3.1/../../../../arm-none-eabi/lib/thumb/v7e-m/fpv4-sp/hard\libc_nano.a(lib_a-mprec.o)
 .text.__ratio  0x00000000       0x66 c:/stm32/gcc-arm-none-eabi/bin/../lib/gcc/arm-none-eabi/7.3.1/../../../../arm-none-eabi/lib/thumb/v7e-m/fpv4-sp/hard\libc_nano.a(lib_a-mprec.o)
 .text._mprec_log10
                0x00000000       0x3c c:/stm32/gcc-arm-none-eabi/bin/../lib/gcc/arm-none-eabi/7.3.1/../../../../arm-none-eabi/lib/thumb/v7e-m/fpv4-sp/hard\libc_nano.a(lib_a-mprec.o)
 .text.__copybits
                0x00000000       0x34 c:/stm32/gcc-arm-none-eabi/bin/../lib/gcc/arm-none-eabi/7.3.1/../../../../arm-none-eabi/lib/thumb/v7e-m/fpv4-sp/hard\libc_nano.a(lib_a-mprec.o)
 .text.__any_on
                0x00000000       0x42 c:/stm32/gcc-arm-none-eabi/bin/../lib/gcc/arm-none-eabi/7.3.1/../../../../arm-none-eabi/lib/thumb/v7e-m/fpv4-sp/hard\libc_nano.a(lib_a-mprec.o)
 .rodata.__mprec_bigtens
                0x00000000       0x28 c:/stm32/gcc-arm-none-eabi/bin/../lib/gcc/arm-none-eabi/7.3.1/../../../../arm-none-eabi/lib/thumb/v7e-m/fpv4-sp/hard\libc_nano.a(lib_a-mprec.o)
 .rodata.__mprec_tens
                0x00000000       0xc8 c:/stm32/gcc-arm-none-eabi/bin/../lib/gcc/arm-none-eabi/7.3.1/../../../../arm-none-eabi/lib/thumb/v7e-m/fpv4-sp/hard\libc_nano.a(lib_a-mprec.o)
 .rodata.__mprec_tinytens
                0x00000000       0x28 c:/stm32/gcc-arm-none-eabi/bin/../lib/gcc/arm-none-eabi/7.3.1/../../../../arm-none-eabi/lib/thumb/v7e-m/fpv4-sp/hard\libc_nano.a(lib_a-mprec.o)
 .rodata.p05.7359
                0x00000000        0xc c:/stm32/gcc-arm-none-eabi/bin/../lib/gcc/arm-none-eabi/7.3.1/../../../../arm-none-eabi/lib/thumb/v7e-m/fpv4-sp/hard\libc_nano.a(lib_a-mprec.o)
 .debug_frame   0x00000000      0x244 c:/stm32/gcc-arm-none-eabi/bin/../lib/gcc/arm-none-eabi/7.3.1/../../../../arm-none-eabi/lib/thumb/v7e-m/fpv4-sp/hard\libc_nano.a(lib_a-mprec.o)
 .ARM.attributes
                0x00000000       0x34 c:/stm32/gcc-arm-none-eabi/bin/../lib/gcc/arm-none-eabi/7.3.1/../../../../arm-none-eabi/lib/thumb/v7e-m/fpv4-sp/hard\libc_nano.a(lib_a-mprec.o)
 .text          0x00000000        0x0 c:/stm32/gcc-arm-none-eabi/bin/../lib/gcc/arm-none-eabi/7.3.1/../../../../arm-none-eabi/lib/thumb/v7e-m/fpv4-sp/hard\libc_nano.a(lib_a-nano-callocr.o)
 .data          0x00000000        0x0 c:/stm32/gcc-arm-none-eabi/bin/../lib/gcc/arm-none-eabi/7.3.1/../../../../arm-none-eabi/lib/thumb/v7e-m/fpv4-sp/hard\libc_nano.a(lib_a-nano-callocr.o)
 .bss           0x00000000        0x0 c:/stm32/gcc-arm-none-eabi/bin/../lib/gcc/arm-none-eabi/7.3.1/../../../../arm-none-eabi/lib/thumb/v7e-m/fpv4-sp/hard\libc_nano.a(lib_a-nano-callocr.o)
 .text._calloc_r
                0x00000000       0x1c c:/stm32/gcc-arm-none-eabi/bin/../lib/gcc/arm-none-eabi/7.3.1/../../../../arm-none-eabi/lib/thumb/v7e-m/fpv4-sp/hard\libc_nano.a(lib_a-nano-callocr.o)
 .debug_frame   0x00000000       0x2c c:/stm32/gcc-arm-none-eabi/bin/../lib/gcc/arm-none-eabi/7.3.1/../../../../arm-none-eabi/lib/thumb/v7e-m/fpv4-sp/hard\libc_nano.a(lib_a-nano-callocr.o)
 .ARM.attributes
                0x00000000       0x34 c:/stm32/gcc-arm-none-eabi/bin/../lib/gcc/arm-none-eabi/7.3.1/../../../../arm-none-eabi/lib/thumb/v7e-m/fpv4-sp/hard\libc_nano.a(lib_a-nano-callocr.o)
 .text          0x00000000        0x0 c:/stm32/gcc-arm-none-eabi/bin/../lib/gcc/arm-none-eabi/7.3.1/../../../../arm-none-eabi/lib/thumb/v7e-m/fpv4-sp/hard\libc_nano.a(lib_a-nano-reallocr.o)
 .data          0x00000000        0x0 c:/stm32/gcc-arm-none-eabi/bin/../lib/gcc/arm-none-eabi/7.3.1/../../../../arm-none-eabi/lib/thumb/v7e-m/fpv4-sp/hard\libc_nano.a(lib_a-nano-reallocr.o)
 .bss           0x00000000        0x0 c:/stm32/gcc-arm-none-eabi/bin/../lib/gcc/arm-none-eabi/7.3.1/../../../../arm-none-eabi/lib/thumb/v7e-m/fpv4-sp/hard\libc_nano.a(lib_a-nano-reallocr.o)
 .text          0x00000000        0x0 c:/stm32/gcc-arm-none-eabi/bin/../lib/gcc/arm-none-eabi/7.3.1/../../../../arm-none-eabi/lib/thumb/v7e-m/fpv4-sp/hard\libc_nano.a(lib_a-nano-svfprintf.o)
 .data          0x00000000        0x0 c:/stm32/gcc-arm-none-eabi/bin/../lib/gcc/arm-none-eabi/7.3.1/../../../../arm-none-eabi/lib/thumb/v7e-m/fpv4-sp/hard\libc_nano.a(lib_a-nano-svfprintf.o)
 .bss           0x00000000        0x0 c:/stm32/gcc-arm-none-eabi/bin/../lib/gcc/arm-none-eabi/7.3.1/../../../../arm-none-eabi/lib/thumb/v7e-m/fpv4-sp/hard\libc_nano.a(lib_a-nano-svfprintf.o)
 .text.__ssprint_r
                0x00000000       0xf0 c:/stm32/gcc-arm-none-eabi/bin/../lib/gcc/arm-none-eabi/7.3.1/../../../../arm-none-eabi/lib/thumb/v7e-m/fpv4-sp/hard\libc_nano.a(lib_a-nano-svfprintf.o)
 .text          0x00000000        0x0 c:/stm32/gcc-arm-none-eabi/bin/../lib/gcc/arm-none-eabi/7.3.1/../../../../arm-none-eabi/lib/thumb/v7e-m/fpv4-sp/hard\libc_nano.a(lib_a-nano-vfprintf_i.o)
 .data          0x00000000        0x0 c:/stm32/gcc-arm-none-eabi/bin/../lib/gcc/arm-none-eabi/7.3.1/../../../../arm-none-eabi/lib/thumb/v7e-m/fpv4-sp/hard\libc_nano.a(lib_a-nano-vfprintf_i.o)
 .bss           0x00000000        0x0 c:/stm32/gcc-arm-none-eabi/bin/../lib/gcc/arm-none-eabi/7.3.1/../../../../arm-none-eabi/lib/thumb/v7e-m/fpv4-sp/hard\libc_nano.a(lib_a-nano-vfprintf_i.o)
 .text          0x00000000        0x0 c:/stm32/gcc-arm-none-eabi/bin/../lib/gcc/arm-none-eabi/7.3.1/../../../../arm-none-eabi/lib/thumb/v7e-m/fpv4-sp/hard\libc_nano.a(lib_a-reent.o)
 .data          0x00000000        0x0 c:/stm32/gcc-arm-none-eabi/bin/../lib/gcc/arm-none-eabi/7.3.1/../../../../arm-none-eabi/lib/thumb/v7e-m/fpv4-sp/hard\libc_nano.a(lib_a-reent.o)
 .bss           0x00000000        0x0 c:/stm32/gcc-arm-none-eabi/bin/../lib/gcc/arm-none-eabi/7.3.1/../../../../arm-none-eabi/lib/thumb/v7e-m/fpv4-sp/hard\libc_nano.a(lib_a-reent.o)
 .text.cleanup_glue
                0x00000000       0x1a c:/stm32/gcc-arm-none-eabi/bin/../lib/gcc/arm-none-eabi/7.3.1/../../../../arm-none-eabi/lib/thumb/v7e-m/fpv4-sp/hard\libc_nano.a(lib_a-reent.o)
 .text._reclaim_reent
                0x00000000       0xb8 c:/stm32/gcc-arm-none-eabi/bin/../lib/gcc/arm-none-eabi/7.3.1/../../../../arm-none-eabi/lib/thumb/v7e-m/fpv4-sp/hard\libc_nano.a(lib_a-reent.o)
 .text          0x00000000        0x0 c:/stm32/gcc-arm-none-eabi/bin/../lib/gcc/arm-none-eabi/7.3.1/../../../../arm-none-eabi/lib/thumb/v7e-m/fpv4-sp/hard\libc_nano.a(lib_a-sf_nan.o)
 .data          0x00000000        0x0 c:/stm32/gcc-arm-none-eabi/bin/../lib/gcc/arm-none-eabi/7.3.1/../../../../arm-none-eabi/lib/thumb/v7e-m/fpv4-sp/hard\libc_nano.a(lib_a-sf_nan.o)
 .bss           0x00000000        0x0 c:/stm32/gcc-arm-none-eabi/bin/../lib/gcc/arm-none-eabi/7.3.1/../../../../arm-none-eabi/lib/thumb/v7e-m/fpv4-sp/hard\libc_nano.a(lib_a-sf_nan.o)
 .text.nanf     0x00000000        0xc c:/stm32/gcc-arm-none-eabi/bin/../lib/gcc/arm-none-eabi/7.3.1/../../../../arm-none-eabi/lib/thumb/v7e-m/fpv4-sp/hard\libc_nano.a(lib_a-sf_nan.o)
 .debug_frame   0x00000000       0x20 c:/stm32/gcc-arm-none-eabi/bin/../lib/gcc/arm-none-eabi/7.3.1/../../../../arm-none-eabi/lib/thumb/v7e-m/fpv4-sp/hard\libc_nano.a(lib_a-sf_nan.o)
 .ARM.attributes
                0x00000000       0x34 c:/stm32/gcc-arm-none-eabi/bin/../lib/gcc/arm-none-eabi/7.3.1/../../../../arm-none-eabi/lib/thumb/v7e-m/fpv4-sp/hard\libc_nano.a(lib_a-sf_nan.o)
 .data          0x00000000        0x0 c:/stm32/gcc-arm-none-eabi/bin/../lib/gcc/arm-none-eabi/7.3.1/../../../../arm-none-eabi/lib/thumb/v7e-m/fpv4-sp/hard\libc_nano.a(lib_a-memchr.o)
 .bss           0x00000000        0x0 c:/stm32/gcc-arm-none-eabi/bin/../lib/gcc/arm-none-eabi/7.3.1/../../../../arm-none-eabi/lib/thumb/v7e-m/fpv4-sp/hard\libc_nano.a(lib_a-memchr.o)
 .text          0x00000000        0x0 c:/stm32/gcc-arm-none-eabi/bin/../lib/gcc/arm-none-eabi/7.3.1/../../../../arm-none-eabi/lib/thumb/v7e-m/fpv4-sp/hard\libc_nano.a(lib_a-nano-msizer.o)
 .data          0x00000000        0x0 c:/stm32/gcc-arm-none-eabi/bin/../lib/gcc/arm-none-eabi/7.3.1/../../../../arm-none-eabi/lib/thumb/v7e-m/fpv4-sp/hard\libc_nano.a(lib_a-nano-msizer.o)
 .bss           0x00000000        0x0 c:/stm32/gcc-arm-none-eabi/bin/../lib/gcc/arm-none-eabi/7.3.1/../../../../arm-none-eabi/lib/thumb/v7e-m/fpv4-sp/hard\libc_nano.a(lib_a-nano-msizer.o)
 .data          0x00000000        0x0 c:/stm32/gcc-arm-none-eabi/bin/../lib/gcc/arm-none-eabi/7.3.1/thumb/v7e-m/fpv4-sp/hard\libgcc.a(_arm_addsubdf3.o)
 .bss           0x00000000        0x0 c:/stm32/gcc-arm-none-eabi/bin/../lib/gcc/arm-none-eabi/7.3.1/thumb/v7e-m/fpv4-sp/hard\libgcc.a(_arm_addsubdf3.o)
 .data          0x00000000        0x0 c:/stm32/gcc-arm-none-eabi/bin/../lib/gcc/arm-none-eabi/7.3.1/thumb/v7e-m/fpv4-sp/hard\libgcc.a(_arm_muldivdf3.o)
 .bss           0x00000000        0x0 c:/stm32/gcc-arm-none-eabi/bin/../lib/gcc/arm-none-eabi/7.3.1/thumb/v7e-m/fpv4-sp/hard\libgcc.a(_arm_muldivdf3.o)
 .data          0x00000000        0x0 c:/stm32/gcc-arm-none-eabi/bin/../lib/gcc/arm-none-eabi/7.3.1/thumb/v7e-m/fpv4-sp/hard\libgcc.a(_arm_cmpdf2.o)
 .bss           0x00000000        0x0 c:/stm32/gcc-arm-none-eabi/bin/../lib/gcc/arm-none-eabi/7.3.1/thumb/v7e-m/fpv4-sp/hard\libgcc.a(_arm_cmpdf2.o)
 .data          0x00000000        0x0 c:/stm32/gcc-arm-none-eabi/bin/../lib/gcc/arm-none-eabi/7.3.1/thumb/v7e-m/fpv4-sp/hard\libgcc.a(_arm_unorddf2.o)
 .bss           0x00000000        0x0 c:/stm32/gcc-arm-none-eabi/bin/../lib/gcc/arm-none-eabi/7.3.1/thumb/v7e-m/fpv4-sp/hard\libgcc.a(_arm_unorddf2.o)
 .data          0x00000000        0x0 c:/stm32/gcc-arm-none-eabi/bin/../lib/gcc/arm-none-eabi/7.3.1/thumb/v7e-m/fpv4-sp/hard\libgcc.a(_arm_fixdfsi.o)
 .bss           0x00000000        0x0 c:/stm32/gcc-arm-none-eabi/bin/../lib/gcc/arm-none-eabi/7.3.1/thumb/v7e-m/fpv4-sp/hard\libgcc.a(_arm_fixdfsi.o)
 .data          0x00000000        0x0 c:/stm32/gcc-arm-none-eabi/bin/../lib/gcc/arm-none-eabi/7.3.1/thumb/v7e-m/fpv4-sp/hard\libgcc.a(_arm_fixunsdfsi.o)
 .bss           0x00000000        0x0 c:/stm32/gcc-arm-none-eabi/bin/../lib/gcc/arm-none-eabi/7.3.1/thumb/v7e-m/fpv4-sp/hard\libgcc.a(_arm_fixunsdfsi.o)
 .text          0x00000000       0xa0 c:/stm32/gcc-arm-none-eabi/bin/../lib/gcc/arm-none-eabi/7.3.1/thumb/v7e-m/fpv4-sp/hard\libgcc.a(_arm_truncdfsf2.o)
 .data          0x00000000        0x0 c:/stm32/gcc-arm-none-eabi/bin/../lib/gcc/arm-none-eabi/7.3.1/thumb/v7e-m/fpv4-sp/hard\libgcc.a(_arm_truncdfsf2.o)
 .bss           0x00000000        0x0 c:/stm32/gcc-arm-none-eabi/bin/../lib/gcc/arm-none-eabi/7.3.1/thumb/v7e-m/fpv4-sp/hard\libgcc.a(_arm_truncdfsf2.o)
 .debug_frame   0x00000000       0x24 c:/stm32/gcc-arm-none-eabi/bin/../lib/gcc/arm-none-eabi/7.3.1/thumb/v7e-m/fpv4-sp/hard\libgcc.a(_arm_truncdfsf2.o)
 .ARM.attributes
                0x00000000       0x22 c:/stm32/gcc-arm-none-eabi/bin/../lib/gcc/arm-none-eabi/7.3.1/thumb/v7e-m/fpv4-sp/hard\libgcc.a(_arm_truncdfsf2.o)
 .data          0x00000000        0x0 c:/stm32/gcc-arm-none-eabi/bin/../lib/gcc/arm-none-eabi/7.3.1/thumb/v7e-m/fpv4-sp/hard\libgcc.a(_aeabi_uldivmod.o)
 .bss           0x00000000        0x0 c:/stm32/gcc-arm-none-eabi/bin/../lib/gcc/arm-none-eabi/7.3.1/thumb/v7e-m/fpv4-sp/hard\libgcc.a(_aeabi_uldivmod.o)
 .data          0x00000000        0x0 c:/stm32/gcc-arm-none-eabi/bin/../lib/gcc/arm-none-eabi/7.3.1/thumb/v7e-m/fpv4-sp/hard\libgcc.a(_udivmoddi4.o)
 .bss           0x00000000        0x0 c:/stm32/gcc-arm-none-eabi/bin/../lib/gcc/arm-none-eabi/7.3.1/thumb/v7e-m/fpv4-sp/hard\libgcc.a(_udivmoddi4.o)
 .ARM.extab     0x00000000        0x0 c:/stm32/gcc-arm-none-eabi/bin/../lib/gcc/arm-none-eabi/7.3.1/thumb/v7e-m/fpv4-sp/hard\libgcc.a(_udivmoddi4.o)
 .data          0x00000000        0x0 c:/stm32/gcc-arm-none-eabi/bin/../lib/gcc/arm-none-eabi/7.3.1/thumb/v7e-m/fpv4-sp/hard\libgcc.a(unwind-arm.o)
 .bss           0x00000000        0x0 c:/stm32/gcc-arm-none-eabi/bin/../lib/gcc/arm-none-eabi/7.3.1/thumb/v7e-m/fpv4-sp/hard\libgcc.a(unwind-arm.o)
 .ARM.extab     0x00000000        0x0 c:/stm32/gcc-arm-none-eabi/bin/../lib/gcc/arm-none-eabi/7.3.1/thumb/v7e-m/fpv4-sp/hard\libgcc.a(unwind-arm.o)
 .data          0x00000000        0x0 c:/stm32/gcc-arm-none-eabi/bin/../lib/gcc/arm-none-eabi/7.3.1/thumb/v7e-m/fpv4-sp/hard\libgcc.a(libunwind.o)
 .bss           0x00000000        0x0 c:/stm32/gcc-arm-none-eabi/bin/../lib/gcc/arm-none-eabi/7.3.1/thumb/v7e-m/fpv4-sp/hard\libgcc.a(libunwind.o)
 .data          0x00000000        0x0 c:/stm32/gcc-arm-none-eabi/bin/../lib/gcc/arm-none-eabi/7.3.1/thumb/v7e-m/fpv4-sp/hard\libgcc.a(pr-support.o)
 .bss           0x00000000        0x0 c:/stm32/gcc-arm-none-eabi/bin/../lib/gcc/arm-none-eabi/7.3.1/thumb/v7e-m/fpv4-sp/hard\libgcc.a(pr-support.o)
 .data          0x00000000        0x0 c:/stm32/gcc-arm-none-eabi/bin/../lib/gcc/arm-none-eabi/7.3.1/thumb/v7e-m/fpv4-sp/hard\libgcc.a(_dvmd_tls.o)
 .bss           0x00000000        0x0 c:/stm32/gcc-arm-none-eabi/bin/../lib/gcc/arm-none-eabi/7.3.1/thumb/v7e-m/fpv4-sp/hard\libgcc.a(_dvmd_tls.o)
 .text          0x00000000        0x0 c:/stm32/gcc-arm-none-eabi/bin/../lib/gcc/arm-none-eabi/7.3.1/../../../../arm-none-eabi/lib/thumb/v7e-m/fpv4-sp/hard\libnosys.a(getpid.o)
 .data          0x00000000        0x0 c:/stm32/gcc-arm-none-eabi/bin/../lib/gcc/arm-none-eabi/7.3.1/../../../../arm-none-eabi/lib/thumb/v7e-m/fpv4-sp/hard\libnosys.a(getpid.o)
 .bss           0x00000000        0x0 c:/stm32/gcc-arm-none-eabi/bin/../lib/gcc/arm-none-eabi/7.3.1/../../../../arm-none-eabi/lib/thumb/v7e-m/fpv4-sp/hard\libnosys.a(getpid.o)
 .text          0x00000000        0x0 c:/stm32/gcc-arm-none-eabi/bin/../lib/gcc/arm-none-eabi/7.3.1/../../../../arm-none-eabi/lib/thumb/v7e-m/fpv4-sp/hard\libnosys.a(kill.o)
 .data          0x00000000        0x0 c:/stm32/gcc-arm-none-eabi/bin/../lib/gcc/arm-none-eabi/7.3.1/../../../../arm-none-eabi/lib/thumb/v7e-m/fpv4-sp/hard\libnosys.a(kill.o)
 .bss           0x00000000        0x0 c:/stm32/gcc-arm-none-eabi/bin/../lib/gcc/arm-none-eabi/7.3.1/../../../../arm-none-eabi/lib/thumb/v7e-m/fpv4-sp/hard\libnosys.a(kill.o)
 .text          0x00000000        0x0 c:/stm32/gcc-arm-none-eabi/bin/../lib/gcc/arm-none-eabi/7.3.1/../../../../arm-none-eabi/lib/thumb/v7e-m/fpv4-sp/hard\libnosys.a(sbrk.o)
 .data          0x00000000        0x0 c:/stm32/gcc-arm-none-eabi/bin/../lib/gcc/arm-none-eabi/7.3.1/../../../../arm-none-eabi/lib/thumb/v7e-m/fpv4-sp/hard\libnosys.a(sbrk.o)
 .bss           0x00000000        0x0 c:/stm32/gcc-arm-none-eabi/bin/../lib/gcc/arm-none-eabi/7.3.1/../../../../arm-none-eabi/lib/thumb/v7e-m/fpv4-sp/hard\libnosys.a(sbrk.o)
 .text          0x00000000        0x0 c:/stm32/gcc-arm-none-eabi/bin/../lib/gcc/arm-none-eabi/7.3.1/../../../../arm-none-eabi/lib/thumb/v7e-m/fpv4-sp/hard\libnosys.a(_exit.o)
 .data          0x00000000        0x0 c:/stm32/gcc-arm-none-eabi/bin/../lib/gcc/arm-none-eabi/7.3.1/../../../../arm-none-eabi/lib/thumb/v7e-m/fpv4-sp/hard\libnosys.a(_exit.o)
 .bss           0x00000000        0x0 c:/stm32/gcc-arm-none-eabi/bin/../lib/gcc/arm-none-eabi/7.3.1/../../../../arm-none-eabi/lib/thumb/v7e-m/fpv4-sp/hard\libnosys.a(_exit.o)
 .text          0x00000000        0x0 c:/stm32/gcc-arm-none-eabi/bin/../lib/gcc/arm-none-eabi/7.3.1/thumb/v7e-m/fpv4-sp/hard/crtend.o
 .data          0x00000000        0x0 c:/stm32/gcc-arm-none-eabi/bin/../lib/gcc/arm-none-eabi/7.3.1/thumb/v7e-m/fpv4-sp/hard/crtend.o
 .bss           0x00000000        0x0 c:/stm32/gcc-arm-none-eabi/bin/../lib/gcc/arm-none-eabi/7.3.1/thumb/v7e-m/fpv4-sp/hard/crtend.o
 .eh_frame      0x00000000        0x4 c:/stm32/gcc-arm-none-eabi/bin/../lib/gcc/arm-none-eabi/7.3.1/thumb/v7e-m/fpv4-sp/hard/crtend.o
 .ARM.attributes
                0x00000000       0x34 c:/stm32/gcc-arm-none-eabi/bin/../lib/gcc/arm-none-eabi/7.3.1/thumb/v7e-m/fpv4-sp/hard/crtend.o
 .text          0x00000000        0x0 c:/stm32/gcc-arm-none-eabi/bin/../lib/gcc/arm-none-eabi/7.3.1/thumb/v7e-m/fpv4-sp/hard/crtn.o
 .data          0x00000000        0x0 c:/stm32/gcc-arm-none-eabi/bin/../lib/gcc/arm-none-eabi/7.3.1/thumb/v7e-m/fpv4-sp/hard/crtn.o
 .bss           0x00000000        0x0 c:/stm32/gcc-arm-none-eabi/bin/../lib/gcc/arm-none-eabi/7.3.1/thumb/v7e-m/fpv4-sp/hard/crtn.o

Memory Configuration

Name             Origin             Length             Attributes
RAM              0x20000000         0x00020000         xrw
FLASH            0x08000000         0x00080000         xr
*default*        0x00000000         0xffffffff

Linker script and memory map

LOAD c:/stm32/gcc-arm-none-eabi/bin/../lib/gcc/arm-none-eabi/7.3.1/thumb/v7e-m/fpv4-sp/hard/crti.o
LOAD c:/stm32/gcc-arm-none-eabi/bin/../lib/gcc/arm-none-eabi/7.3.1/thumb/v7e-m/fpv4-sp/hard/crtbegin.o
LOAD c:/stm32/gcc-arm-none-eabi/bin/../lib/gcc/arm-none-eabi/7.3.1/../../../../arm-none-eabi/lib/thumb/v7e-m/fpv4-sp/hard/crt0.o
LOAD build/PROJECT/App.o
LOAD build/PROJECT/sketch.o
LOAD build/PROJECT/midiTime.o
LOAD build/PROJECT/BlinkerPanel.o
LOAD build/PROJECT/StatusPanel.o
LOAD build/PROJECT/SegmentVideo.o
LOAD build/ARDUINO/flagMessaging.o
LOAD build/ARDUINO/HardwareInterfaces.o
LOAD build/ARDUINO/Panel.o
LOAD build/ARDUINO/PanelComponents.o
LOAD build/ARDUINO/PanelDataObjects.o
LOAD build/ARDUINO/timeKeeper.o
LOAD build/ARDUINO/timeKeeper32.o
LOAD build/ARDUINO/timerModule.o
LOAD build/ARDUINO/timerModule32.o
LOAD build/ARDUINO/MIDI.o
LOAD build/ARDUINO/interface.o
LOAD build/ARDUINO/abi.o
LOAD build/ARDUINO/GPIO.o
LOAD build/ARDUINO/ADC.o
LOAD build/ARDUINO/HardwareSerial.o
LOAD build/ARDUINO/STM_ArduinoPins.o
LOAD build/ARDUINO/itoa.o
LOAD build/ARDUINO/Print.o
LOAD build/ARDUINO/Stream.o
LOAD build/ARDUINO/WString.o
LOAD build/ARDUINO/STM_ArduinoPins.o
LOAD build/HAL/main.o
LOAD build/HAL/gpio.o
LOAD build/HAL/adc.o
LOAD build/HAL/adc_ext.o
LOAD build/HAL/debugPins.o
LOAD build/HAL/display_clock.o
LOAD build/HAL/dma.o
LOAD build/HAL/spi.o
LOAD build/HAL/tim.o
LOAD build/HAL/usart.o
LOAD build/HAL/stm32f4xx_it.o
LOAD build/HAL/stm32f4xx_hal_msp.o
LOAD build/HAL/unused_int.o
LOAD build/HAL/stm32f4xx_hal_adc.o
LOAD build/HAL/stm32f4xx_hal_adc_ex.o
LOAD build/HAL/stm32f4xx_hal_spi.o
LOAD build/HAL/stm32f4xx_hal_tim.o
LOAD build/HAL/stm32f4xx_hal_tim_ex.o
LOAD build/HAL/stm32f4xx_hal_uart.o
LOAD build/HAL/stm32f4xx_hal_rcc.o
LOAD build/HAL/stm32f4xx_hal_rcc_ex.o
LOAD build/HAL/stm32f4xx_hal_flash.o
LOAD build/HAL/stm32f4xx_hal_flash_ex.o
LOAD build/HAL/stm32f4xx_hal_flash_ramfunc.o
LOAD build/HAL/stm32f4xx_hal_gpio.o
LOAD build/HAL/stm32f4xx_hal_dma_ex.o
LOAD build/HAL/stm32f4xx_hal_dma.o
LOAD build/HAL/stm32f4xx_hal_pwr.o
LOAD build/HAL/stm32f4xx_hal_pwr_ex.o
LOAD build/HAL/stm32f4xx_hal_cortex.o
LOAD build/HAL/stm32f4xx_hal.o
LOAD build/HAL/system_stm32f4xx.o
LOAD build/HAL/startup_stm32f446xx.o
LOAD c:/stm32/gcc-arm-none-eabi/bin/../lib/gcc/arm-none-eabi/7.3.1/../../../../arm-none-eabi/lib/thumb/v7e-m/fpv4-sp/hard\libstdc++_nano.a
LOAD c:/stm32/gcc-arm-none-eabi/bin/../lib/gcc/arm-none-eabi/7.3.1/../../../../arm-none-eabi/lib/thumb/v7e-m/fpv4-sp/hard\libm.a
LOAD c:/stm32/gcc-arm-none-eabi/bin/../lib/gcc/arm-none-eabi/7.3.1/../../../../arm-none-eabi/lib/thumb/v7e-m/fpv4-sp/hard\libc_nano.a
START GROUP
LOAD c:/stm32/gcc-arm-none-eabi/bin/../lib/gcc/arm-none-eabi/7.3.1/thumb/v7e-m/fpv4-sp/hard\libgcc.a
LOAD c:/stm32/gcc-arm-none-eabi/bin/../lib/gcc/arm-none-eabi/7.3.1/../../../../arm-none-eabi/lib/thumb/v7e-m/fpv4-sp/hard\libg_nano.a
LOAD c:/stm32/gcc-arm-none-eabi/bin/../lib/gcc/arm-none-eabi/7.3.1/../../../../arm-none-eabi/lib/thumb/v7e-m/fpv4-sp/hard\libc_nano.a
END GROUP
START GROUP
LOAD c:/stm32/gcc-arm-none-eabi/bin/../lib/gcc/arm-none-eabi/7.3.1/thumb/v7e-m/fpv4-sp/hard\libgcc.a
LOAD c:/stm32/gcc-arm-none-eabi/bin/../lib/gcc/arm-none-eabi/7.3.1/../../../../arm-none-eabi/lib/thumb/v7e-m/fpv4-sp/hard\libc_nano.a
LOAD c:/stm32/gcc-arm-none-eabi/bin/../lib/gcc/arm-none-eabi/7.3.1/../../../../arm-none-eabi/lib/thumb/v7e-m/fpv4-sp/hard\libnosys.a
END GROUP
START GROUP
LOAD c:/stm32/gcc-arm-none-eabi/bin/../lib/gcc/arm-none-eabi/7.3.1/thumb/v7e-m/fpv4-sp/hard\libgcc.a
LOAD c:/stm32/gcc-arm-none-eabi/bin/../lib/gcc/arm-none-eabi/7.3.1/../../../../arm-none-eabi/lib/thumb/v7e-m/fpv4-sp/hard\libc_nano.a
LOAD c:/stm32/gcc-arm-none-eabi/bin/../lib/gcc/arm-none-eabi/7.3.1/../../../../arm-none-eabi/lib/thumb/v7e-m/fpv4-sp/hard\libnosys.a
END GROUP
LOAD c:/stm32/gcc-arm-none-eabi/bin/../lib/gcc/arm-none-eabi/7.3.1/thumb/v7e-m/fpv4-sp/hard/crtend.o
LOAD c:/stm32/gcc-arm-none-eabi/bin/../lib/gcc/arm-none-eabi/7.3.1/thumb/v7e-m/fpv4-sp/hard/crtn.o
                0x20020000                _estack = 0x20020000
                0x00000200                _Min_Heap_Size = 0x200
                0x00000400                _Min_Stack_Size = 0x400

.isr_vector     0x08000000      0x1c4
                0x08000000                . = ALIGN (0x4)
 *(.isr_vector)
 .isr_vector    0x08000000      0x1c4 build/HAL/startup_stm32f446xx.o
                0x08000000                g_pfnVectors
                0x080001c4                . = ALIGN (0x4)

.text           0x080001d0    0x19494
                0x080001d0                . = ALIGN (0x4)
 *(.text)
 .text          0x080001d0       0x40 c:/stm32/gcc-arm-none-eabi/bin/../lib/gcc/arm-none-eabi/7.3.1/thumb/v7e-m/fpv4-sp/hard/crtbegin.o
 .text          0x08000210        0xe build/PROJECT/App.o
                0x08000210                AppEntry
 *fill*         0x0800021e        0x2 
 .text          0x08000220      0x3bc build/PROJECT/sketch.o
                0x08000220                handleClock()
                0x08000234                handleStart()
                0x08000248                handleContinue()
                0x0800025c                handleStop()
                0x08000270                handleNoteOn(unsigned char, unsigned char, unsigned char)
                0x080002a8                handleNoteOff(unsigned char, unsigned char, unsigned char)
                0x080002c6                setup()
                0x080003d0                loop()
 .text          0x080005dc      0x360 build/PROJECT/midiTime.o
                0x080005dc                MidiClock::MidiClock()
                0x080005dc                MidiClock::MidiClock()
                0x0800060a                MidiClock::incrementTime_uS(int)
                0x08000654                MidiClock::setBPM(int)
                0x08000688                MidiClock::incrementTick()
                0x080006a8                MidiClock::play()
                0x080006ca                MidiClock::resume()
                0x080006ea                MidiClock::stop()
                0x08000704                MidiClock::isTickSubDiv(unsigned long, signed char)
                0x0800078c                MidiClock::ticksToQuarterNotes(unsigned long)
                0x080007c0                MidiClock::ticksToMeasures(unsigned long)
                0x080007f4                MidiClock::processCallbacks()
                0x080008d0                MidiClockSocket::MidiClockSocket()
                0x080008d0                MidiClockSocket::MidiClockSocket()
                0x080008e6                MidiClockSocket::SwitchMidiClock(MidiClock*)
                0x08000914                MidiClockSocket::SetBeatCallback(void (*)(MidiClock*))
 .text          0x0800093c      0xd44 build/PROJECT/BlinkerPanel.o
                0x0800093c                BlinkerPanel::BlinkerPanel()
                0x0800093c                BlinkerPanel::BlinkerPanel()
                0x08000e2a                BlinkerPanel::reset()
                0x08000ef0                BlinkerPanel::tickStateMachine(int)
                0x08001618                BlinkerPanel::switchToInternalClock()
                0x0800164c                BlinkerPanel::switchToExternalClock()
 .text          0x08001680      0x24c build/PROJECT/StatusPanel.o
                0x08001680                StatusPanel::BeatCallback(MidiClock*)
                0x080016ec                StatusPanel::StatusPanel()
                0x080016ec                StatusPanel::StatusPanel()
                0x080017aa                StatusPanel::reset()
                0x080017e2                StatusPanel::tickStateMachine(int)
 .text          0x080018cc      0x3ec build/PROJECT/SegmentVideo.o
                0x080018cc                SegmentFrameBuffer::SegmentFrameBuffer()
                0x080018cc                SegmentFrameBuffer::SegmentFrameBuffer()
                0x08001916                SegmentFrameBuffer::write(unsigned char const*)
                0x08001996                SegmentFrameBuffer::ready()
                0x08001a02                SegmentFrameBuffer::empty()
                0x08001a6a                SegmentFrameBuffer::read()
                0x08001ae4                SegmentVideo::displayDrawClockNums(char const*)
                0x08001b54                SegmentVideo::displayDrawValue(char const*)
                0x08001bc4                SegmentVideo::setPlayIndicator()
                0x08001bf0                SegmentVideo::clearPlayIndicator()
                0x08001c1c                SegmentVideo::toggleClockColon()
                0x08001c48                SegmentVideo::writeNextFrame()
 .text          0x08001cb8       0xe8 build/ARDUINO/flagMessaging.o
                0x08001cb8                MessagingFlag::MessagingFlag()
                0x08001cb8                MessagingFlag::MessagingFlag()
                0x08001ce0                MessagingFlag::serviceRisingEdge()
                0x08001d0c                MessagingFlag::serviceFallingEdge()
                0x08001d38                MessagingFlag::getFlag()
                0x08001d50                MessagingFlag::setFlag()
                0x08001d78                MessagingFlag::clearFlag()
 .text          0x08001da0      0x160 build/ARDUINO/HardwareInterfaces.o
                0x08001da0                ArduinoDigitalIn::ArduinoDigitalIn(int)
                0x08001da0                ArduinoDigitalIn::ArduinoDigitalIn(int)
                0x08001df0                ArduinoDigitalIn::readHardware()
                0x08001e14                ArduinoDigitalOut::ArduinoDigitalOut(int)
                0x08001e14                ArduinoDigitalOut::ArduinoDigitalOut(int)
                0x08001e64                ArduinoDigitalOut::writeHardware()
                0x08001e88                ArduinoAnalogIn::ArduinoAnalogIn(int)
                0x08001e88                ArduinoAnalogIn::ArduinoAnalogIn(int)
                0x08001ed8                ArduinoAnalogIn::readHardware()
 .text          0x08001f00       0xf0 build/ARDUINO/Panel.o
                0x08001f00                Panel::Panel()
                0x08001f00                Panel::Panel()
                0x08001f16                Panel::freshenComponents(unsigned short)
                0x08001f60                Panel::add(PanelComponent*)
                0x08001fbe                Panel::lastComponent()
 .text          0x08001ff0      0xf24 build/ARDUINO/PanelComponents.o
                0x08001ff0                PanelComponent::freshenStatic(unsigned short)
                0x08002090                Button::setHardware(GenericHardwareDescription*, bool)
                0x080020e4                Button::hasFreshData()
                0x0800212c                Button::freshen(unsigned short)
                0x0800224c                Button::getState()
                0x08002264                Button::serviceRisingEdge()
                0x08002290                Button::serviceFallingEdge()
                0x080022bc                Button::serviceHoldRisingEdge()
                0x080022e8                Button::serviceHoldFallingEdge()
                0x08002314                Led::setHardware(GenericHardwareDescription*, bool)
                0x0800233a                Led::freshen(unsigned short)
                0x080023dc                Led::getState()
                0x080023f4                Led::setState(ledState_t)
                0x08002412                Led::toggle()
                0x08002444                KnobParentClass::KnobParentClass()
                0x08002444                KnobParentClass::KnobParentClass()
                0x08002470                KnobParentClass::setHardware(GenericHardwareDescription*)
                0x0800248c                KnobParentClass::hasFreshData()
                0x080024ae                KnobParentClass::serviceChanged()
                0x080024d6                Simple8BitKnob::freshen(unsigned short)
                0x08002544                Simple8BitKnob::getState()
                0x0800255c                Simple10BitKnob::freshen(unsigned short)
                0x08002666                Simple10BitKnob::setHysteresis(unsigned char)
                0x08002684                Simple10BitKnob::getState()
                0x0800269c                Complex10BitKnob::freshen(unsigned short)
                0x080026f0                Complex10BitKnob::getState()
                0x0800270a                Complex10BitKnob::getAsUInt8()
                0x0800272c                Complex10BitKnob::getAsInt16()
                0x080027e2                Complex10BitKnob::getAsUInt16()
                0x08002892                Complex10BitKnob::getAsFloat()
                0x08002930                Complex10BitKnob::setLowerKnobVal(unsigned short)
                0x0800295c                Complex10BitKnob::setUpperKnobVal(unsigned short)
                0x08002988                Complex10BitKnob::setLowerFloatVal(float)
                0x080029a6                Complex10BitKnob::setUpperFloatVal(float)
                0x080029c4                Complex10BitKnob::setLowerIntVal(short)
                0x080029e2                Complex10BitKnob::setUpperIntVal(short)
                0x08002a00                Complex10BitKnob::setLowerUIntVal(unsigned short)
                0x08002a1e                Complex10BitKnob::setUpperUIntVal(unsigned short)
                0x08002a3c                Hysteresis10BitKnob::Hysteresis10BitKnob()
                0x08002a3c                Hysteresis10BitKnob::Hysteresis10BitKnob()
                0x08002a98                Hysteresis10BitKnob::freshen(unsigned short)
                0x08002c66                Hysteresis10BitKnob::setHysteresis(unsigned char)
                0x08002c86                Hysteresis10BitKnob::setSamplesAveraged(unsigned char)
                0x08002ca6                Windowed10BitKnob::Windowed10BitKnob()
                0x08002ca6                Windowed10BitKnob::Windowed10BitKnob()
                0x08002d04                Windowed10BitKnob::freshen(unsigned short)
                0x08002e6e                Windowed10BitKnob::setSamplesAveraged(unsigned char)
                0x08002e8e                Windowed10BitKnob::setWindow(short)
                0x08002eac                Windowed10BitKnob::moveWindowUpper(unsigned short)
                0x08002ee0                Windowed10BitKnob::moveWindowLower(unsigned short)
 .text          0x08002f14      0x178 build/ARDUINO/PanelDataObjects.o
                0x08002f14                DataObject::DataObject()
                0x08002f14                DataObject::DataObject()
                0x08002f38                ButtonDataObject::ButtonDataObject()
                0x08002f38                ButtonDataObject::ButtonDataObject()
                0x08002f6a                ButtonDataObject::~ButtonDataObject()
                0x08002f6a                ButtonDataObject::~ButtonDataObject()
                0x08002f8e                LedDataObject::LedDataObject()
                0x08002f8e                LedDataObject::LedDataObject()
                0x08002fc0                LedDataObject::~LedDataObject()
                0x08002fc0                LedDataObject::~LedDataObject()
                0x08002fe4                KnobDataObject::KnobDataObject()
                0x08002fe4                KnobDataObject::KnobDataObject()
                0x08003016                KnobDataObject::~KnobDataObject()
                0x08003016                KnobDataObject::~KnobDataObject()
                0x0800303a                dumpObject(DataObject*)
 .text          0x0800308c       0x82 build/ARDUINO/timeKeeper.o
                0x0800308c                TimeKeeper::TimeKeeper()
                0x0800308c                TimeKeeper::TimeKeeper()
                0x080030a8                TimeKeeper::mClear()
                0x080030c2                TimeKeeper::mGet()
                0x080030da                TimeKeeper::mIncrement(unsigned char)
 *fill*         0x0800310e        0x2 
 .text          0x08003110       0x80 build/ARDUINO/timeKeeper32.o
                0x08003110                TimeKeeper32::TimeKeeper32()
                0x08003110                TimeKeeper32::TimeKeeper32()
                0x0800312c                TimeKeeper32::uClear()
                0x08003146                TimeKeeper32::uGet()
                0x0800315e                TimeKeeper32::uIncrement(unsigned long)
 .text          0x08003190       0xdc build/ARDUINO/timerModule32.o
                0x08003190                TimerClass32::TimerClass32(unsigned long)
                0x08003190                TimerClass32::TimerClass32(unsigned long)
                0x080031ba                TimerClass32::update(unsigned long)
                0x0800322c                TimerClass32::flagStatus()
                0x08003250                TimerClass32::setInterval(unsigned long)
 .text          0x0800326c       0xc0 build/ARDUINO/interface.o
                0x0800326c                interface_init()
                0x08003294                delay(unsigned long)
 .text          0x0800332c        0xc build/ARDUINO/abi.o
                0x0800332c                __cxa_pure_virtual
                0x08003332                __cxa_deleted_virtual
 .text          0x08003338      0x100 build/ARDUINO/GPIO.o
                0x08003338                pinMode
                0x08003388                digitalWrite
                0x080033d4                digitalRead
                0x08003424                digitalToggle
 .text          0x08003438       0x44 build/ARDUINO/ADC.o
                0x08003438                analogRead
 .text          0x0800347c      0x12c build/ARDUINO/HardwareSerial.o
                0x0800347c                HardwareSerial::HardwareSerial()
                0x0800347c                HardwareSerial::HardwareSerial()
                0x080034a0                HardwareSerial::init(UartInstance*)
                0x080034bc                HardwareSerial::begin(unsigned long, unsigned char)
                0x080034e8                HardwareSerial::end()
                0x08003504                HardwareSerial::available()
                0x08003520                HardwareSerial::peek()
                0x0800353c                HardwareSerial::read()
                0x08003558                HardwareSerial::availableForWrite()
                0x08003570                HardwareSerial::flush()
                0x08003584                HardwareSerial::write(unsigned char)
 .text          0x080035a8      0x8a4 build/ARDUINO/Print.o
                0x080035a8                Print::write(unsigned char const*, unsigned int)
                0x08003604                Print::print(__FlashStringHelper const*)
                0x08003620                Print::print(String const&)
                0x0800364e                Print::print(char const*)
                0x0800366a                Print::print(char)
                0x0800368e                Print::print(unsigned char, int)
                0x080036b2                Print::print(int, int)
                0x080036d2                Print::print(unsigned int, int)
                0x080036f2                Print::print(long, int)
                0x08003772                Print::print(unsigned long, int)
                0x080037b0                Print::print(double, int)
                0x080037d8                Print::println(__FlashStringHelper const*)
                0x08003806                Print::print(Printable const&)
                0x08003826                Print::println()
                0x08003844                Print::println(String const&)
                0x08003872                Print::println(char const*)
                0x080038a0                Print::println(char)
                0x080038d2                Print::println(unsigned char, int)
                0x08003908                Print::println(int, int)
                0x0800393a                Print::println(unsigned int, int)
                0x0800396c                Print::println(long, int)
                0x0800399e                Print::println(unsigned long, int)
                0x080039d0                Print::println(double, int)
                0x08003a06                Print::println(Printable const&)
                0x08003a34                Print::printNumber(unsigned long, unsigned char)
                0x08003abc                Print::printFloat(double, unsigned char)
                0x08003cac                Print::println(long long, unsigned char)
                0x08003cd4                Print::print(long long, unsigned char)
                0x08003d2c                Print::println(unsigned long long, unsigned char)
                0x08003d54                Print::print(unsigned long long, unsigned char)
                0x08003d80                Print::printLLNumber(unsigned long long, unsigned char)
 .text          0x08003e4c      0x170 build/HAL/main.o
                0x08003e4c                main
                0x08003e7a                SystemClock_Config
                0x08003f7c                HAL_SYSTICK_Callback
                0x08003f98                millis
                0x08003fb0                _Error_Handler
 .text          0x08003fbc      0x1bc build/HAL/gpio.o
                0x08003fbc                MX_GPIO_Init
 .text          0x08004178      0x18c build/HAL/adc.o
                0x08004178                MX_ADC1_Init
                0x08004258                HAL_ADC_MspInit
                0x080042c4                HAL_ADC_MspDeInit
 .text          0x08004304        0xe build/HAL/adc_ext.o
                0x08004304                convertADC
 .text          0x08004312       0x1c build/HAL/debugPins.o
                0x08004312                traceWrite
 *fill*         0x0800432e        0x2 
 .text          0x08004330       0x8c build/HAL/display_clock.o
                0x08004330                writeDisplay
                0x08004370                displayTransmitFrame
                0x0800439c                HAL_SPI_TxCpltCallback
 .text          0x080043bc       0x7c build/HAL/dma.o
                0x080043bc                MX_DMA_Init
 .text          0x08004438      0x1a0 build/HAL/spi.o
                0x08004438                MX_SPI1_Init
                0x080044ac                HAL_SPI_MspInit
                0x0800458c                HAL_SPI_MspDeInit
 .text          0x080045d8      0x188 build/HAL/tim.o
                0x080045d8                MX_TIM2_Init
                0x08004678                HAL_TIM_Base_MspInit
                0x080046c4                HAL_TIM_Base_MspDeInit
                0x080046f4                HAL_TIM_PeriodElapsedCallback
 .text          0x08004760      0x890 build/HAL/usart.o
                0x08004760                MX_USART2_UART_Init
                0x0800482c                MX_USART6_UART_Init
                0x080048f8                HAL_UART_MspInit
                0x08004aa0                HAL_UART_MspDeInit
                0x08004bd6                halUartPeek
                0x08004bfe                halUartWrite
                0x08004c9c                halUartRead
                0x08004cf6                halUartReadBytesAvailable
                0x08004d24                HAL_UART_TxCpltCallback
                0x08004db8                HAL_UART_RxCpltCallback
                0x08004f80                emergencyRestart
                0x08004f9c                HAL_UART_ErrorCallback
                0x08004fd0                HAL_UART_AbortCpltCallback
                0x08004fda                HAL_UART_AbortTransmitCpltCallback
                0x08004fe4                HAL_UART_AbortReceiveCpltCallback
 .text          0x08004ff0      0x100 build/HAL/stm32f4xx_it.o
                0x08004ff0                NMI_Handler
                0x08004ffe                HardFault_Handler
                0x08005004                MemManage_Handler
                0x0800500a                BusFault_Handler
                0x08005010                UsageFault_Handler
                0x08005016                SVC_Handler
                0x08005024                DebugMon_Handler
                0x08005032                PendSV_Handler
                0x08005040                SysTick_Handler
                0x08005050                DMA1_Stream6_IRQHandler
                0x08005064                ADC_IRQHandler
                0x08005078                TIM2_IRQHandler
                0x0800508c                SPI1_IRQHandler
                0x080050a0                USART2_IRQHandler
                0x080050b4                DMA2_Stream3_IRQHandler
                0x080050c8                DMA2_Stream6_IRQHandler
                0x080050dc                USART6_IRQHandler
 .text          0x080050f0       0xa4 build/HAL/stm32f4xx_hal_msp.o
                0x080050f0                HAL_MspInit
 .text          0x08005194      0x59c build/HAL/unused_int.o
                0x08005194                isr_break
                0x080051b4                voidHardFault_Handler
                0x080051ba                WWDG_IRQHandler
                0x080051c6                PVD_IRQHandler
                0x080051d4                TAMP_STAMP_IRQHandler
                0x080051e2                RTC_WKUP_IRQHandler
                0x080051f0                FLASH_IRQHandler
                0x080051fe                RCC_IRQHandler
                0x0800520c                EXTI0_IRQHandler
                0x0800521a                EXTI1_IRQHandler
                0x08005228                EXTI2_IRQHandler
                0x08005236                EXTI3_IRQHandler
                0x08005244                EXTI4_IRQHandler
                0x08005252                DMA1_Stream0_IRQHandler
                0x08005260                DMA1_Stream1_IRQHandler
                0x0800526e                DMA1_Stream2_IRQHandler
                0x0800527c                DMA1_Stream3_IRQHandler
                0x0800528a                DMA1_Stream4_IRQHandler
                0x08005298                DMA1_Stream5_IRQHandler
                0x080052a6                CAN1_TX_IRQHandler
                0x080052b4                CAN1_RX0_IRQHandler
                0x080052c2                CAN1_RX1_IRQHandler
                0x080052d0                CAN1_SCE_IRQHandler
                0x080052de                EXTI9_5_IRQHandler
                0x080052ec                TIM1_BRK_TIM9_IRQHandler
                0x080052fa                TIM1_TRG_COM_TIM11_IRQHandler
                0x08005308                TIM1_CC_IRQHandler
                0x08005316                TIM3_IRQHandler
                0x08005324                TIM4_IRQHandler
                0x08005332                I2C1_EV_IRQHandler
                0x08005340                I2C1_ER_IRQHandler
                0x0800534e                I2C2_EV_IRQHandler
                0x0800535c                I2C2_ER_IRQHandler
                0x0800536a                SPI2_IRQHandler
                0x08005378                USART1_IRQHandler
                0x08005386                USART3_IRQHandler
                0x08005394                EXTI15_10_IRQHandler
                0x080053a2                RTC_Alarm_IRQHandler
                0x080053b0                OTG_FS_WKUP_IRQHandler
                0x080053be                TIM8_BRK_TIM12_IRQHandler
                0x080053cc                TIM8_UP_TIM13_IRQHandler
                0x080053da                TIM8_TRG_COM_TIM14_IRQHandler
                0x080053e8                TIM8_CC_IRQHandler
                0x080053f6                DMA1_Stream7_IRQHandler
                0x08005404                FMC_IRQHandler
                0x08005412                SDMMC1_IRQHandler
                0x08005420                TIM5_IRQHandler
                0x0800542e                SPI3_IRQHandler
                0x0800543c                UART4_IRQHandler
                0x0800544a                UART5_IRQHandler
                0x08005458                TIM6_DAC_IRQHandler
                0x08005466                TIM7_IRQHandler
                0x08005474                DMA2_Stream0_IRQHandler
                0x08005482                DMA2_Stream1_IRQHandler
                0x08005490                DMA2_Stream2_IRQHandler
                0x0800549e                DMA2_Stream4_IRQHandler
                0x080054ac                ETH_IRQHandler
                0x080054ba                ETH_WKUP_IRQHandler
                0x080054c8                CAN2_TX_IRQHandler
                0x080054d6                CAN2_RX0_IRQHandler
                0x080054e4                CAN2_RX1_IRQHandler
                0x080054f2                CAN2_SCE_IRQHandler
                0x08005500                OTG_FS_IRQHandler
                0x0800550e                DMA2_Stream5_IRQHandler
                0x0800551c                DMA2_Stream7_IRQHandler
                0x0800552a                I2C3_EV_IRQHandler
                0x08005538                I2C3_ER_IRQHandler
                0x08005546                OTG_HS_EP1_OUT_IRQHandler
                0x08005554                OTG_HS_EP1_IN_IRQHandler
                0x08005562                OTG_HS_WKUP_IRQHandler
                0x08005570                OTG_HS_IRQHandler
                0x0800557e                DCMI_IRQHandler
                0x0800558c                RNG_IRQHandler
                0x0800559a                FPU_IRQHandler
                0x080055a8                UART7_IRQHandler
                0x080055b6                UART8_IRQHandler
                0x080055c4                SPI4_IRQHandler
                0x080055d2                SPI5_IRQHandler
                0x080055e0                SPI6_IRQHandler
                0x080055ee                SAI1_IRQHandler
                0x080055fc                LTDC_IRQHandler
                0x0800560a                LTDC_ER_IRQHandler
                0x08005618                DMA2D_IRQHandler
                0x08005626                SAI2_IRQHandler
                0x08005634                QUADSPI_IRQHandler
                0x08005642                LPTIM1_IRQHandler
                0x08005650                CEC_IRQHandler
                0x0800565e                I2C4_EV_IRQHandler
                0x0800566c                I2C4_ER_IRQHandler
                0x0800567a                SPDIF_RX_IRQHandler
                0x08005688                DSI_IRQHandler
                0x08005696                DFSDM1_FLT0_IRQHandler
                0x080056a4                DFSDM1_FLT1_IRQHandler
                0x080056b2                DFSDM1_FLT2_IRQHandler
                0x080056c0                DFSDM1_FLT3_IRQHandler
                0x080056ce                SDMMC2_IRQHandler
                0x080056dc                CAN3_TX_IRQHandler
                0x080056ea                CAN3_RX0_IRQHandler
                0x080056f8                CAN3_RX1_IRQHandler
                0x08005706                CAN3_SCE_IRQHandler
                0x08005714                JPEG_IRQHandler
                0x08005722                MDIOS_IRQHandler
 .text          0x08005730     0x118c build/HAL/stm32f4xx_hal_adc.o
                0x08005730                HAL_ADC_Init
                0x080057b6                HAL_ADC_DeInit
                0x08005842                HAL_ADC_Start
                0x0800598c                HAL_ADC_Stop
                0x080059f2                HAL_ADC_PollForConversion
                0x08005af6                HAL_ADC_PollForEvent
                0x08005b9e                HAL_ADC_Start_IT
                0x08005cfc                HAL_ADC_Stop_IT
                0x08005d76                HAL_ADC_IRQHandler
                0x08005ff8                HAL_ADC_Start_DMA
                0x0800619c                HAL_ADC_Stop_DMA
                0x08006230                HAL_ADC_GetValue
                0x0800624a                HAL_ADC_ConvCpltCallback
                0x0800625e                HAL_ADC_ConvHalfCpltCallback
                0x08006272                HAL_ADC_LevelOutOfWindowCallback
                0x08006286                HAL_ADC_ErrorCallback
                0x0800629a                HAL_ADC_ConfigChannel
                0x080064e8                HAL_ADC_AnalogWDGConfig
                0x080065a8                HAL_ADC_GetState
                0x080065c0                HAL_ADC_GetError
 .text          0x080068bc      0xc84 build/HAL/stm32f4xx_hal_adc_ex.o
                0x080068bc                HAL_ADCEx_InjectedStart
                0x08006a38                HAL_ADCEx_InjectedStart_IT
                0x08006bc4                HAL_ADCEx_InjectedStop
                0x08006c5a                HAL_ADCEx_InjectedPollForConversion
                0x08006d40                HAL_ADCEx_InjectedStop_IT
                0x08006de6                HAL_ADCEx_InjectedGetValue
                0x08006e54                HAL_ADCEx_MultiModeStart_DMA
                0x08006fcc                HAL_ADCEx_MultiModeStop_DMA
                0x08007064                HAL_ADCEx_MultiModeGetValue
                0x08007084                HAL_ADCEx_InjectedConvCpltCallback
                0x08007098                HAL_ADCEx_InjectedConfigChannel
                0x080073c4                HAL_ADCEx_MultiModeConfigChannel
 .text          0x08007540     0x21ac build/HAL/stm32f4xx_hal_spi.o
                0x08007540                HAL_SPI_Init
                0x08007608                HAL_SPI_DeInit
                0x08007680                HAL_SPI_Transmit
                0x080078fa                HAL_SPI_Receive
                0x08007b1a                HAL_SPI_TransmitReceive
                0x08007e5a                HAL_SPI_Transmit_IT
                0x08007f78                HAL_SPI_Receive_IT
                0x080080a4                HAL_SPI_TransmitReceive_IT
                0x080081d8                HAL_SPI_Transmit_DMA
                0x08008314                HAL_SPI_Receive_DMA
                0x08008474                HAL_SPI_TransmitReceive_DMA
                0x08008644                HAL_SPI_Abort
                0x08008798                HAL_SPI_Abort_IT
                0x08008964                HAL_SPI_DMAPause
                0x080089a8                HAL_SPI_DMAResume
                0x080089ec                HAL_SPI_DMAStop
                0x08008a3a                HAL_SPI_IRQHandler
                0x08008bfc                HAL_SPI_RxCpltCallback
                0x08008c10                HAL_SPI_TxRxCpltCallback
                0x08008c24                HAL_SPI_TxHalfCpltCallback
                0x08008c38                HAL_SPI_RxHalfCpltCallback
                0x08008c4c                HAL_SPI_TxRxHalfCpltCallback
                0x08008c60                HAL_SPI_ErrorCallback
                0x08008c74                HAL_SPI_AbortCpltCallback
                0x08008c88                HAL_SPI_GetState
                0x08008ca4                HAL_SPI_GetError
 .text          0x080096ec     0x3e7c build/HAL/stm32f4xx_hal_tim.o
                0x080096ec                HAL_TIM_Base_Init
                0x08009742                HAL_TIM_Base_DeInit
                0x080097ca                HAL_TIM_Base_Start
                0x08009800                HAL_TIM_Base_Stop
                0x08009856                HAL_TIM_Base_Start_IT
                0x0800988c                HAL_TIM_Base_Stop_IT
                0x080098e2                HAL_TIM_Base_Start_DMA
                0x0800997c                HAL_TIM_Base_Stop_DMA
                0x080099da                HAL_TIM_OC_Init
                0x08009a30                HAL_TIM_OC_DeInit
                0x08009a90                HAL_TIM_OC_MspInit
                0x08009aa4                HAL_TIM_OC_MspDeInit
                0x08009ab8                HAL_TIM_OC_Start
                0x08009b20                HAL_TIM_OC_Stop
                0x08009bc8                HAL_TIM_OC_Start_IT
                0x08009cbc                HAL_TIM_OC_Stop_IT
                0x08009df0                HAL_TIM_OC_Start_DMA
                0x08009fb4                HAL_TIM_OC_Stop_DMA
                0x0800a0f0                HAL_TIM_PWM_Init
                0x0800a146                HAL_TIM_PWM_DeInit
                0x0800a1a6                HAL_TIM_PWM_MspInit
                0x0800a1ba                HAL_TIM_PWM_MspDeInit
                0x0800a1ce                HAL_TIM_PWM_Start
                0x0800a238                HAL_TIM_PWM_Stop
                0x0800a2e8                HAL_TIM_PWM_Start_IT
                0x0800a3dc                HAL_TIM_PWM_Stop_IT
                0x0800a510                HAL_TIM_PWM_Start_DMA
                0x0800a6d4                HAL_TIM_PWM_Stop_DMA
                0x0800a810                HAL_TIM_IC_Init
                0x0800a866                HAL_TIM_IC_DeInit
                0x0800a8c6                HAL_TIM_IC_MspInit
                0x0800a8da                HAL_TIM_IC_MspDeInit
                0x0800a8ee                HAL_TIM_IC_Start
                0x0800a920                HAL_TIM_IC_Stop
                0x0800a972                HAL_TIM_IC_Start_IT
                0x0800aa2e                HAL_TIM_IC_Stop_IT
                0x0800ab0a                HAL_TIM_IC_Start_DMA
                0x0800ac9c                HAL_TIM_IC_Stop_DMA
                0x0800ad82                HAL_TIM_OnePulse_Init
                0x0800adfa                HAL_TIM_OnePulse_DeInit
                0x0800ae5a                HAL_TIM_OnePulse_MspInit
                0x0800ae6e                HAL_TIM_OnePulse_MspDeInit
                0x0800ae82                HAL_TIM_OnePulse_Start
                0x0800aee8                HAL_TIM_OnePulse_Stop
                0x0800afa0                HAL_TIM_OnePulse_Start_IT
                0x0800b028                HAL_TIM_OnePulse_Stop_IT
                0x0800b100                HAL_TIM_Encoder_Init
                0x0800b22c                HAL_TIM_Encoder_DeInit
                0x0800b28c                HAL_TIM_Encoder_MspInit
                0x0800b2a0                HAL_TIM_Encoder_MspDeInit
                0x0800b2b4                HAL_TIM_Encoder_Start
                0x0800b322                HAL_TIM_Encoder_Stop
                0x0800b3b0                HAL_TIM_Encoder_Start_IT
                0x0800b45e                HAL_TIM_Encoder_Stop_IT
                0x0800b532                HAL_TIM_Encoder_Start_DMA
                0x0800b6dc                HAL_TIM_Encoder_Stop_DMA
                0x0800b7b0                HAL_TIM_IRQHandler
                0x0800b9c0                HAL_TIM_OC_ConfigChannel
                0x0800ba80                HAL_TIM_IC_ConfigChannel
                0x0800bbb8                HAL_TIM_PWM_ConfigChannel
                0x0800bd44                HAL_TIM_OnePulse_ConfigChannel
                0x0800bec4                HAL_TIM_DMABurst_WriteStart
                0x0800c0a8                HAL_TIM_DMABurst_WriteStop
                0x0800c158                HAL_TIM_DMABurst_ReadStart
                0x0800c33c                HAL_TIM_DMABurst_ReadStop
                0x0800c3ec                HAL_TIM_GenerateEvent
                0x0800c43a                HAL_TIM_ConfigOCrefClear
                0x0800c58c                HAL_TIM_ConfigClockSource
                0x0800c742                HAL_TIM_ConfigTI1Input
                0x0800c77e                HAL_TIM_SlaveConfigSynchronization
                0x0800c7e8                HAL_TIM_SlaveConfigSynchronization_IT
                0x0800c852                HAL_TIM_ReadCapturedValue
                0x0800c90c                HAL_TIM_OC_DelayElapsedCallback
                0x0800c920                HAL_TIM_IC_CaptureCallback
                0x0800c934                HAL_TIM_PWM_PulseFinishedCallback
                0x0800c948                HAL_TIM_TriggerCallback
                0x0800c95c                HAL_TIM_ErrorCallback
                0x0800c970                HAL_TIM_Base_GetState
                0x0800c98c                HAL_TIM_OC_GetState
                0x0800c9a8                HAL_TIM_PWM_GetState
                0x0800c9c4                HAL_TIM_IC_GetState
                0x0800c9e0                HAL_TIM_OnePulse_GetState
                0x0800c9fc                HAL_TIM_Encoder_GetState
                0x0800ca18                TIM_Base_SetConfig
                0x0800cb6c                TIM_TI1_SetConfig
                0x0800cc64                TIM_OC2_SetConfig
                0x0800cd54                TIM_DMADelayPulseCplt
                0x0800cdc4                TIM_DMAError
                0x0800cde8                TIM_DMACaptureCplt
                0x0800ce58                TIM_CCxChannelCmd
 .text          0x0800d568     0x14c0 build/HAL/stm32f4xx_hal_tim_ex.o
                0x0800d568                HAL_TIMEx_HallSensor_Init
                0x0800d67e                HAL_TIMEx_HallSensor_DeInit
                0x0800d6de                HAL_TIMEx_HallSensor_MspInit
                0x0800d6f2                HAL_TIMEx_HallSensor_MspDeInit
                0x0800d706                HAL_TIMEx_HallSensor_Start
                0x0800d736                HAL_TIMEx_HallSensor_Stop
                0x0800d786                HAL_TIMEx_HallSensor_Start_IT
                0x0800d7c6                HAL_TIMEx_HallSensor_Stop_IT
                0x0800d826                HAL_TIMEx_HallSensor_Start_DMA
                0x0800d8cc                HAL_TIMEx_HallSensor_Stop_DMA
                0x0800d92c                HAL_TIMEx_OCN_Start
                0x0800d96e                HAL_TIMEx_OCN_Stop
                0x0800d9f0                HAL_TIMEx_OCN_Start_IT
                0x0800dace                HAL_TIMEx_OCN_Stop_IT
                0x0800dbfa                HAL_TIMEx_OCN_Start_DMA
                0x0800dd9c                HAL_TIMEx_OCN_Stop_DMA
                0x0800deb2                HAL_TIMEx_PWMN_Start
                0x0800def4                HAL_TIMEx_PWMN_Stop
                0x0800df76                HAL_TIMEx_PWMN_Start_IT
                0x0800e052                HAL_TIMEx_PWMN_Stop_IT
                0x0800e17e                HAL_TIMEx_PWMN_Start_DMA
                0x0800e320                HAL_TIMEx_PWMN_Stop_DMA
                0x0800e436                HAL_TIMEx_OnePulseN_Start
                0x0800e468                HAL_TIMEx_OnePulseN_Stop
                0x0800e4ea                HAL_TIMEx_OnePulseN_Start_IT
                0x0800e53c                HAL_TIMEx_OnePulseN_Stop_IT
                0x0800e5de                HAL_TIMEx_ConfigCommutationEvent
                0x0800e67e                HAL_TIMEx_ConfigCommutationEvent_IT
                0x0800e72e                HAL_TIMEx_ConfigCommutationEvent_DMA
                0x0800e7f8                HAL_TIMEx_MasterConfigSynchronization
                0x0800e882                HAL_TIMEx_ConfigBreakDeadTime
                0x0800e934                HAL_TIMEx_RemapConfig
                0x0800e97a                HAL_TIMEx_CommutationCallback
                0x0800e98e                HAL_TIMEx_BreakCallback
                0x0800e9a2                HAL_TIMEx_HallSensor_GetState
                0x0800e9be                TIMEx_DMACommutationCplt
 .text          0x0800ea28     0x1da8 build/HAL/stm32f4xx_hal_uart.o
                0x0800ea28                HAL_UART_Init
                0x0800eac2                HAL_HalfDuplex_Init
                0x0800eb6c                HAL_LIN_Init
                0x0800ec38                HAL_MultiProcessor_Init
                0x0800ed18                HAL_UART_DeInit
                0x0800ed88                HAL_UART_Transmit
                0x0800eeba                HAL_UART_Receive
                0x0800f006                HAL_UART_Transmit_IT
                0x0800f090                HAL_UART_Receive_IT
                0x0800f12a                HAL_UART_Transmit_DMA
                0x0800f204                HAL_UART_Receive_DMA
                0x0800f304                HAL_UART_DMAPause
                0x0800f3cc                HAL_UART_DMAResume
                0x0800f46e                HAL_UART_DMAStop
                0x0800f524                HAL_UART_Abort
                0x0800f5e8                HAL_UART_AbortTransmit
                0x0800f650                HAL_UART_AbortReceive
                0x0800f6c8                HAL_UART_Abort_IT
                0x0800f810                HAL_UART_AbortTransmit_IT
                0x0800f8b0                HAL_UART_AbortReceive_IT
                0x0800f960                HAL_UART_IRQHandler
                0x0800fb6c                HAL_UART_TxHalfCpltCallback
                0x0800fb94                HAL_UART_RxHalfCpltCallback
                0x0800fbf8                HAL_LIN_SendBreak
                0x0800fc4c                HAL_MultiProcessor_EnterMuteMode
                0x0800fca0                HAL_MultiProcessor_ExitMuteMode
                0x0800fcf4                HAL_HalfDuplex_EnableTransmitter
                0x0800fd5c                HAL_HalfDuplex_EnableReceiver
                0x0800fdc4                HAL_UART_GetState
                0x0800fe00                HAL_UART_GetError
 .text          0x080107d0      0xae8 build/HAL/stm32f4xx_hal_rcc.o
                0x08010c64                HAL_RCC_ClockConfig
                0x08010e28                HAL_RCC_MCOConfig
                0x08010ef8                HAL_RCC_EnableCSS
                0x08010f10                HAL_RCC_DisableCSS
                0x0801108c                HAL_RCC_GetHCLKFreq
                0x080110a4                HAL_RCC_GetPCLK1Freq
                0x080110cc                HAL_RCC_GetPCLK2Freq
                0x0801121c                HAL_RCC_GetClockConfig
                0x08011280                HAL_RCC_NMI_IRQHandler
                0x080112a8                HAL_RCC_CSSCallback
 .text          0x080112b8     0x1898 build/HAL/stm32f4xx_hal_rcc_ex.o
                0x080112b8                HAL_RCCEx_PeriphCLKConfig
                0x0801190c                HAL_RCCEx_GetPeriphCLKConfig
                0x08011a98                HAL_RCCEx_GetPeriphCLKFreq
                0x08011ed4                HAL_RCCEx_SelectLSEMode
                0x08011f10                HAL_RCCEx_EnablePLLI2S
                0x08011fb0                HAL_RCCEx_DisablePLLI2S
                0x08011ff4                HAL_RCCEx_EnablePLLSAI
                0x08012090                HAL_RCCEx_DisablePLLSAI
                0x080120d8                HAL_RCC_GetSysClockFreq
                0x0801237c                HAL_RCC_DeInit
                0x08012564                HAL_RCC_OscConfig
                0x08012a18                HAL_RCC_GetOscConfig
 .text          0x08012b50      0x628 build/HAL/stm32f4xx_hal_gpio.o
                0x08012b50                HAL_GPIO_Init
                0x08012e74                HAL_GPIO_DeInit
                0x08013058                HAL_GPIO_ReadPin
                0x08013088                HAL_GPIO_WritePin
                0x080130ba                HAL_GPIO_TogglePin
                0x080130de                HAL_GPIO_LockPin
                0x0801312e                HAL_GPIO_EXTI_IRQHandler
                0x08013160                HAL_GPIO_EXTI_Callback
 .text          0x08013178      0xc88 build/HAL/stm32f4xx_hal_dma.o
                0x08013178                HAL_DMA_Init
                0x080132d4                HAL_DMA_DeInit
                0x0801336c                HAL_DMA_Start
                0x080133e2                HAL_DMA_Start_IT
                0x080134a2                HAL_DMA_Abort
                0x08013582                HAL_DMA_Abort_IT
                0x080135c6                HAL_DMA_PollForTransfer
                0x08013784                HAL_DMA_IRQHandler
                0x08013a96                HAL_DMA_RegisterCallback
                0x08013b3e                HAL_DMA_UnRegisterCallback
                0x08013c10                HAL_DMA_GetState
                0x08013c2c                HAL_DMA_GetError
 .text          0x08013e00      0x3bc build/HAL/stm32f4xx_hal_pwr_ex.o
                0x08013e00                HAL_PWREx_EnableBkUpReg
                0x08013e4c                HAL_PWREx_DisableBkUpReg
                0x08013e98                HAL_PWREx_EnableFlashPowerDown
                0x08013eb0                HAL_PWREx_DisableFlashPowerDown
                0x08013ec8                HAL_PWREx_GetVoltageRange
                0x08013ee4                HAL_PWREx_ControlVoltageScaling
                0x08013fd8                HAL_PWREx_EnableOverDrive
                0x08014078                HAL_PWREx_DisableOverDrive
                0x08014118                HAL_PWREx_EnterUnderDriveSTOPMode
 .text          0x080141bc      0x628 build/HAL/stm32f4xx_hal_cortex.o
                0x08014544                HAL_NVIC_SetPriorityGrouping
                0x0801455a                HAL_NVIC_SetPriority
                0x08014592                HAL_NVIC_EnableIRQ
                0x080145ae                HAL_NVIC_DisableIRQ
                0x080145ca                HAL_NVIC_SystemReset
                0x080145d6                HAL_SYSTICK_Config
                0x080145ee                HAL_MPU_Disable
                0x0801461c                HAL_MPU_Enable
                0x08014658                HAL_MPU_ConfigRegion
                0x080146e0                HAL_NVIC_GetPriorityGrouping
                0x080146ee                HAL_NVIC_GetPriority
                0x0801471a                HAL_NVIC_SetPendingIRQ
                0x08014736                HAL_NVIC_GetPendingIRQ
                0x08014754                HAL_NVIC_ClearPendingIRQ
                0x08014770                HAL_NVIC_GetActive
                0x0801478e                HAL_SYSTICK_CLKSourceConfig
                0x080147c8                HAL_SYSTICK_IRQHandler
 .text          0x080147e4      0x3c0 build/HAL/stm32f4xx_hal.o
                0x080147e4                HAL_Init
                0x08014828                HAL_DeInit
                0x0801488e                HAL_MspDeInit
                0x0801489c                HAL_InitTick
                0x080148fc                HAL_IncTick
                0x08014924                HAL_GetTick
                0x0801493c                HAL_GetTickPrio
                0x08014954                HAL_SetTickFreq
                0x08014994                HAL_GetTickFreq
                0x080149ac                HAL_Delay
                0x080149f0                HAL_SuspendTick
                0x08014a10                HAL_ResumeTick
                0x08014a30                HAL_GetHalVersion
                0x08014a44                HAL_GetREVID
                0x08014a5c                HAL_GetDEVID
                0x08014a78                HAL_DBGMCU_EnableDBGSleepMode
                0x08014a98                HAL_DBGMCU_DisableDBGSleepMode
                0x08014ab8                HAL_DBGMCU_EnableDBGStopMode
                0x08014ad8                HAL_DBGMCU_DisableDBGStopMode
                0x08014af8                HAL_DBGMCU_EnableDBGStandbyMode
                0x08014b18                HAL_DBGMCU_DisableDBGStandbyMode
                0x08014b38                HAL_EnableCompensationCell
                0x08014b50                HAL_DisableCompensationCell
                0x08014b68                HAL_GetUID
 .text          0x08014ba4      0x160 build/HAL/system_stm32f4xx.o
                0x08014ba4                SystemInit
                0x08014c10                SystemCoreClockUpdate
 .text          0x08014d04       0x14 c:/stm32/gcc-arm-none-eabi/bin/../lib/gcc/arm-none-eabi/7.3.1/../../../../arm-none-eabi/lib/thumb/v7e-m/fpv4-sp/hard\libc_nano.a(lib_a-strcmp.o)
                0x08014d04                strcmp
 .text          0x08014d18       0x10 c:/stm32/gcc-arm-none-eabi/bin/../lib/gcc/arm-none-eabi/7.3.1/../../../../arm-none-eabi/lib/thumb/v7e-m/fpv4-sp/hard\libc_nano.a(lib_a-strlen.o)
                0x08014d18                strlen
 *fill*         0x08014d28        0x8 
 .text          0x08014d30       0xa0 c:/stm32/gcc-arm-none-eabi/bin/../lib/gcc/arm-none-eabi/7.3.1/../../../../arm-none-eabi/lib/thumb/v7e-m/fpv4-sp/hard\libc_nano.a(lib_a-memchr.o)
                0x08014d30                memchr
 .text          0x08014dd0      0x378 c:/stm32/gcc-arm-none-eabi/bin/../lib/gcc/arm-none-eabi/7.3.1/thumb/v7e-m/fpv4-sp/hard\libgcc.a(_arm_addsubdf3.o)
                0x08014dd0                __aeabi_drsub
                0x08014dd8                __aeabi_dsub
                0x08014dd8                __subdf3
                0x08014ddc                __aeabi_dadd
                0x08014ddc                __adddf3
                0x08015054                __floatunsidf
                0x08015054                __aeabi_ui2d
                0x08015074                __floatsidf
                0x08015074                __aeabi_i2d
                0x08015098                __aeabi_f2d
                0x08015098                __extendsfdf2
                0x080150dc                __floatundidf
                0x080150dc                __aeabi_ul2d
                0x080150ec                __floatdidf
                0x080150ec                __aeabi_l2d
 .text          0x08015148      0x424 c:/stm32/gcc-arm-none-eabi/bin/../lib/gcc/arm-none-eabi/7.3.1/thumb/v7e-m/fpv4-sp/hard\libgcc.a(_arm_muldivdf3.o)
                0x08015148                __aeabi_dmul
                0x08015148                __muldf3
                0x0801539c                __divdf3
                0x0801539c                __aeabi_ddiv
 .text          0x0801556c      0x110 c:/stm32/gcc-arm-none-eabi/bin/../lib/gcc/arm-none-eabi/7.3.1/thumb/v7e-m/fpv4-sp/hard\libgcc.a(_arm_cmpdf2.o)
                0x0801556c                __gtdf2
                0x0801556c                __gedf2
                0x08015574                __ltdf2
                0x08015574                __ledf2
                0x0801557c                __nedf2
                0x0801557c                __eqdf2
                0x0801557c                __cmpdf2
                0x080155f8                __aeabi_cdrcmple
                0x08015608                __aeabi_cdcmpeq
                0x08015608                __aeabi_cdcmple
                0x08015618                __aeabi_dcmpeq
                0x0801562c                __aeabi_dcmplt
                0x08015640                __aeabi_dcmple
                0x08015654                __aeabi_dcmpge
                0x08015668                __aeabi_dcmpgt
 .text          0x0801567c       0x2c c:/stm32/gcc-arm-none-eabi/bin/../lib/gcc/arm-none-eabi/7.3.1/thumb/v7e-m/fpv4-sp/hard\libgcc.a(_arm_unorddf2.o)
                0x0801567c                __unorddf2
                0x0801567c                __aeabi_dcmpun
 .text          0x080156a8       0x50 c:/stm32/gcc-arm-none-eabi/bin/../lib/gcc/arm-none-eabi/7.3.1/thumb/v7e-m/fpv4-sp/hard\libgcc.a(_arm_fixdfsi.o)
                0x080156a8                __aeabi_d2iz
                0x080156a8                __fixdfsi
 .text          0x080156f8       0x40 c:/stm32/gcc-arm-none-eabi/bin/../lib/gcc/arm-none-eabi/7.3.1/thumb/v7e-m/fpv4-sp/hard\libgcc.a(_arm_fixunsdfsi.o)
                0x080156f8                __aeabi_d2uiz
                0x080156f8                __fixunsdfsi
 .text          0x08015738       0x30 c:/stm32/gcc-arm-none-eabi/bin/../lib/gcc/arm-none-eabi/7.3.1/thumb/v7e-m/fpv4-sp/hard\libgcc.a(_aeabi_uldivmod.o)
                0x08015738                __aeabi_uldivmod
 .text          0x08015768      0x2cc c:/stm32/gcc-arm-none-eabi/bin/../lib/gcc/arm-none-eabi/7.3.1/thumb/v7e-m/fpv4-sp/hard\libgcc.a(_udivmoddi4.o)
                0x08015768                __udivmoddi4
 .text          0x08015a34      0x9ec c:/stm32/gcc-arm-none-eabi/bin/../lib/gcc/arm-none-eabi/7.3.1/thumb/v7e-m/fpv4-sp/hard\libgcc.a(unwind-arm.o)
                0x08015ce8                _Unwind_GetCFA
                0x08015cec                __gnu_Unwind_RaiseException
                0x08015d4c                __gnu_Unwind_ForcedUnwind
                0x08015d60                __gnu_Unwind_Resume
                0x08015da4                __gnu_Unwind_Resume_or_Rethrow
                0x08015db4                _Unwind_Complete
                0x08015db8                _Unwind_DeleteException
                0x08015dc4                _Unwind_VRS_Get
                0x08015e08                _Unwind_VRS_Set
                0x08015e50                __gnu_Unwind_Backtrace
                0x08016194                __aeabi_unwind_cpp_pr0
                0x08016198                __aeabi_unwind_cpp_pr1
                0x0801619c                __aeabi_unwind_cpp_pr2
                0x080161a0                _Unwind_VRS_Pop
 .text          0x08016420      0x1ac c:/stm32/gcc-arm-none-eabi/bin/../lib/gcc/arm-none-eabi/7.3.1/thumb/v7e-m/fpv4-sp/hard\libgcc.a(libunwind.o)
                0x08016420                __restore_core_regs
                0x08016420                restore_core_regs
                0x08016438                __gnu_Unwind_Restore_VFP
                0x08016440                __gnu_Unwind_Save_VFP
                0x08016448                __gnu_Unwind_Restore_VFP_D
                0x08016450                __gnu_Unwind_Save_VFP_D
                0x08016458                __gnu_Unwind_Restore_VFP_D_16_to_31
                0x08016460                __gnu_Unwind_Save_VFP_D_16_to_31
                0x08016468                __gnu_Unwind_Restore_WMMXD
                0x080164ac                __gnu_Unwind_Save_WMMXD
                0x080164f0                __gnu_Unwind_Restore_WMMXC
                0x08016504                __gnu_Unwind_Save_WMMXC
                0x08016518                ___Unwind_RaiseException
                0x08016518                _Unwind_RaiseException
                0x0801653c                _Unwind_Resume
                0x0801653c                ___Unwind_Resume
                0x08016560                _Unwind_Resume_or_Rethrow
                0x08016560                ___Unwind_Resume_or_Rethrow
                0x08016584                _Unwind_ForcedUnwind
                0x08016584                ___Unwind_ForcedUnwind
                0x080165a8                ___Unwind_Backtrace
                0x080165a8                _Unwind_Backtrace
 .text          0x080165cc      0x374 c:/stm32/gcc-arm-none-eabi/bin/../lib/gcc/arm-none-eabi/7.3.1/thumb/v7e-m/fpv4-sp/hard\libgcc.a(pr-support.o)
                0x08016624                __gnu_unwind_execute
                0x080168e8                __gnu_unwind_frame
                0x08016910                _Unwind_GetRegionStart
                0x0801691c                _Unwind_GetLanguageSpecificData
                0x08016930                _Unwind_GetDataRelBase
                0x08016938                _Unwind_GetTextRelBase
 .text          0x08016940        0x4 c:/stm32/gcc-arm-none-eabi/bin/../lib/gcc/arm-none-eabi/7.3.1/thumb/v7e-m/fpv4-sp/hard\libgcc.a(_dvmd_tls.o)
                0x08016940                __aeabi_idiv0
                0x08016940                __aeabi_ldiv0
 *(.text*)
 .text._ZN14HardwareSerial5beginEm
                0x08016944       0x1c build/PROJECT/sketch.o
                0x08016944                HardwareSerial::begin(unsigned long)
 .text._ZN14HardwareSerial5writeEj
                0x08016960       0x24 build/PROJECT/sketch.o
                0x08016960                HardwareSerial::write(unsigned int)
 .text._ZN14HardwareSerial5writeEi
                0x08016984       0x24 build/PROJECT/sketch.o
                0x08016984                HardwareSerial::write(int)
 .text._ZN12BlinkerPanel8getStateEv
                0x080169a8       0x1a build/PROJECT/sketch.o
                0x080169a8                BlinkerPanel::getState()
 .text._ZN12SegmentVideoC2Ev
                0x080169c2       0x42 build/PROJECT/sketch.o
                0x080169c2                SegmentVideo::SegmentVideo()
                0x080169c2                SegmentVideo::SegmentVideo()
 .text._ZN4midi13MidiInterfaceI14HardwareSerialNS_15DefaultSettingsEEC2ERS1_
                0x08016a04       0xe2 build/PROJECT/sketch.o
                0x08016a04                midi::MidiInterface<HardwareSerial, midi::DefaultSettings>::MidiInterface(HardwareSerial&)
                0x08016a04                midi::MidiInterface<HardwareSerial, midi::DefaultSettings>::MidiInterface(HardwareSerial&)
 .text._ZN4midi13MidiInterfaceI14HardwareSerialNS_15DefaultSettingsEE14setHandleClockEPFvvE
                0x08016ae6       0x1c build/PROJECT/sketch.o
                0x08016ae6                midi::MidiInterface<HardwareSerial, midi::DefaultSettings>::setHandleClock(void (*)())
 .text._ZN4midi13MidiInterfaceI14HardwareSerialNS_15DefaultSettingsEE14setHandleStartEPFvvE
                0x08016b02       0x1c build/PROJECT/sketch.o
                0x08016b02                midi::MidiInterface<HardwareSerial, midi::DefaultSettings>::setHandleStart(void (*)())
 .text._ZN4midi13MidiInterfaceI14HardwareSerialNS_15DefaultSettingsEE17setHandleContinueEPFvvE
                0x08016b1e       0x1c build/PROJECT/sketch.o
                0x08016b1e                midi::MidiInterface<HardwareSerial, midi::DefaultSettings>::setHandleContinue(void (*)())
 .text._ZN4midi13MidiInterfaceI14HardwareSerialNS_15DefaultSettingsEE13setHandleStopEPFvvE
                0x08016b3a       0x1c build/PROJECT/sketch.o
                0x08016b3a                midi::MidiInterface<HardwareSerial, midi::DefaultSettings>::setHandleStop(void (*)())
 .text._ZN4midi13MidiInterfaceI14HardwareSerialNS_15DefaultSettingsEE15setHandleNoteOnEPFvhhhE
                0x08016b56       0x1c build/PROJECT/sketch.o
                0x08016b56                midi::MidiInterface<HardwareSerial, midi::DefaultSettings>::setHandleNoteOn(void (*)(unsigned char, unsigned char, unsigned char))
 .text._ZN4midi13MidiInterfaceI14HardwareSerialNS_15DefaultSettingsEE16setHandleNoteOffEPFvhhhE
                0x08016b72       0x1c build/PROJECT/sketch.o
                0x08016b72                midi::MidiInterface<HardwareSerial, midi::DefaultSettings>::setHandleNoteOff(void (*)(unsigned char, unsigned char, unsigned char))
 .text._ZN4midi13MidiInterfaceI14HardwareSerialNS_15DefaultSettingsEE5beginEh
                0x08016b8e       0x9c build/PROJECT/sketch.o
                0x08016b8e                midi::MidiInterface<HardwareSerial, midi::DefaultSettings>::begin(unsigned char)
 .text._ZN4midi13MidiInterfaceI14HardwareSerialNS_15DefaultSettingsEE4readEv
                0x08016c2a       0x20 build/PROJECT/sketch.o
                0x08016c2a                midi::MidiInterface<HardwareSerial, midi::DefaultSettings>::read()
 .text._ZN4midi7MessageILj128EEC2Ev
                0x08016c4a       0x40 build/PROJECT/sketch.o
                0x08016c4a                midi::Message<128u>::Message()
                0x08016c4a                midi::Message<128u>::Message()
 .text._ZN4midi13MidiInterfaceI14HardwareSerialNS_15DefaultSettingsEE4readEh
                0x08016c8a       0x60 build/PROJECT/sketch.o
                0x08016c8a                midi::MidiInterface<HardwareSerial, midi::DefaultSettings>::read(unsigned char)
 *fill*         0x08016cea        0x2 
 .text._ZN4midi13MidiInterfaceI14HardwareSerialNS_15DefaultSettingsEE5parseEv
                0x08016cec      0x59c build/PROJECT/sketch.o
                0x08016cec                midi::MidiInterface<HardwareSerial, midi::DefaultSettings>::parse()
 .text._ZN4midi13MidiInterfaceI14HardwareSerialNS_15DefaultSettingsEE33handleNullVelocityNoteOnAsNoteOffEv
                0x08017288       0x3a build/PROJECT/sketch.o
                0x08017288                midi::MidiInterface<HardwareSerial, midi::DefaultSettings>::handleNullVelocityNoteOnAsNoteOff()
 .text._ZN4midi13MidiInterfaceI14HardwareSerialNS_15DefaultSettingsEE11inputFilterEh
                0x080172c2       0x4a build/PROJECT/sketch.o
                0x080172c2                midi::MidiInterface<HardwareSerial, midi::DefaultSettings>::inputFilter(unsigned char)
 .text._ZN4midi13MidiInterfaceI14HardwareSerialNS_15DefaultSettingsEE14launchCallbackEv
                0x0801730c      0x46c build/PROJECT/sketch.o
                0x0801730c                midi::MidiInterface<HardwareSerial, midi::DefaultSettings>::launchCallback()
 .text._ZN4midi13MidiInterfaceI14HardwareSerialNS_15DefaultSettingsEE10thruFilterEh
                0x08017778      0x1d4 build/PROJECT/sketch.o
                0x08017778                midi::MidiInterface<HardwareSerial, midi::DefaultSettings>::thruFilter(unsigned char)
 .text._ZN4midi13MidiInterfaceI14HardwareSerialNS_15DefaultSettingsEE16isChannelMessageENS_8MidiTypeE
                0x0801794c       0x46 build/PROJECT/sketch.o
                0x0801794c                midi::MidiInterface<HardwareSerial, midi::DefaultSettings>::isChannelMessage(midi::MidiType)
 .text._ZN4midi13MidiInterfaceI14HardwareSerialNS_15DefaultSettingsEE21getTypeFromStatusByteEh
                0x08017992       0x4c build/PROJECT/sketch.o
                0x08017992                midi::MidiInterface<HardwareSerial, midi::DefaultSettings>::getTypeFromStatusByte(unsigned char)
 .text._ZN4midi13MidiInterfaceI14HardwareSerialNS_15DefaultSettingsEE10resetInputEv
                0x080179de       0x28 build/PROJECT/sketch.o
                0x080179de                midi::MidiInterface<HardwareSerial, midi::DefaultSettings>::resetInput()
 .text._ZN4midi13MidiInterfaceI14HardwareSerialNS_15DefaultSettingsEE24getChannelFromStatusByteEh
                0x08017a06       0x22 build/PROJECT/sketch.o
                0x08017a06                midi::MidiInterface<HardwareSerial, midi::DefaultSettings>::getChannelFromStatusByte(unsigned char)
 .text._ZNK4midi13MidiInterfaceI14HardwareSerialNS_15DefaultSettingsEE7getTypeEv
                0x08017a28       0x1a build/PROJECT/sketch.o
                0x08017a28                midi::MidiInterface<HardwareSerial, midi::DefaultSettings>::getType() const
 .text._ZNK4midi13MidiInterfaceI14HardwareSerialNS_15DefaultSettingsEE8getData2Ev
                0x08017a42       0x1a build/PROJECT/sketch.o
                0x08017a42                midi::MidiInterface<HardwareSerial, midi::DefaultSettings>::getData2() const
 .text._ZNK4midi7MessageILj128EE12getSysExSizeEv
                0x08017a5c       0x2e build/PROJECT/sketch.o
                0x08017a5c                midi::Message<128u>::getSysExSize() const
 .text._ZN4midi13MidiInterfaceI14HardwareSerialNS_15DefaultSettingsEE4sendENS_8MidiTypeEhhh
                0x08017a8a       0xb2 build/PROJECT/sketch.o
                0x08017a8a                midi::MidiInterface<HardwareSerial, midi::DefaultSettings>::send(midi::MidiType, unsigned char, unsigned char, unsigned char)
 .text._ZN4midi13MidiInterfaceI14HardwareSerialNS_15DefaultSettingsEE12sendRealTimeENS_8MidiTypeE
                0x08017b3c       0x5c build/PROJECT/sketch.o
                0x08017b3c                midi::MidiInterface<HardwareSerial, midi::DefaultSettings>::sendRealTime(midi::MidiType)
 .text._ZN4midi13MidiInterfaceI14HardwareSerialNS_15DefaultSettingsEE9sendSysExEjPKhb
                0x08017b98       0x6e build/PROJECT/sketch.o
                0x08017b98                midi::MidiInterface<HardwareSerial, midi::DefaultSettings>::sendSysEx(unsigned int, unsigned char const*, bool)
 .text._ZNK4midi13MidiInterfaceI14HardwareSerialNS_15DefaultSettingsEE19getSysExArrayLengthEv
                0x08017c06       0x1c build/PROJECT/sketch.o
                0x08017c06                midi::MidiInterface<HardwareSerial, midi::DefaultSettings>::getSysExArrayLength() const
 .text._ZNK4midi13MidiInterfaceI14HardwareSerialNS_15DefaultSettingsEE13getSysExArrayEv
                0x08017c22       0x18 build/PROJECT/sketch.o
                0x08017c22                midi::MidiInterface<HardwareSerial, midi::DefaultSettings>::getSysExArray() const
 .text._ZN4midi13MidiInterfaceI14HardwareSerialNS_15DefaultSettingsEE14sendSongSelectEh
                0x08017c3a       0x38 build/PROJECT/sketch.o
                0x08017c3a                midi::MidiInterface<HardwareSerial, midi::DefaultSettings>::sendSongSelect(unsigned char)
 .text._ZN4midi13MidiInterfaceI14HardwareSerialNS_15DefaultSettingsEE16sendSongPositionEj
                0x08017c72       0x4a build/PROJECT/sketch.o
                0x08017c72                midi::MidiInterface<HardwareSerial, midi::DefaultSettings>::sendSongPosition(unsigned int)
 .text._ZN4midi13MidiInterfaceI14HardwareSerialNS_15DefaultSettingsEE24sendTimeCodeQuarterFrameEhh
                0x08017cbc       0x3e build/PROJECT/sketch.o
                0x08017cbc                midi::MidiInterface<HardwareSerial, midi::DefaultSettings>::sendTimeCodeQuarterFrame(unsigned char, unsigned char)
 .text._ZNK4midi13MidiInterfaceI14HardwareSerialNS_15DefaultSettingsEE9getStatusENS_8MidiTypeEh
                0x08017cfa       0x34 build/PROJECT/sketch.o
                0x08017cfa                midi::MidiInterface<HardwareSerial, midi::DefaultSettings>::getStatus(midi::MidiType, unsigned char) const
 .text._ZN4midi13MidiInterfaceI14HardwareSerialNS_15DefaultSettingsEE24sendTimeCodeQuarterFrameEh
                0x08017d2e       0x38 build/PROJECT/sketch.o
                0x08017d2e                midi::MidiInterface<HardwareSerial, midi::DefaultSettings>::sendTimeCodeQuarterFrame(unsigned char)
 .text._ZN4midi13MidiInterfaceI14HardwareSerialNS_15DefaultSettingsEED2Ev
                0x08017d66       0x16 build/PROJECT/sketch.o
                0x08017d66                midi::MidiInterface<HardwareSerial, midi::DefaultSettings>::~MidiInterface()
                0x08017d66                midi::MidiInterface<HardwareSerial, midi::DefaultSettings>::~MidiInterface()
 .text._ZN14PanelComponentC2Ev
                0x08017d7c       0x20 build/PROJECT/BlinkerPanel.o
                0x08017d7c                PanelComponent::PanelComponent()
                0x08017d7c                PanelComponent::PanelComponent()
 .text._ZN14PanelComponent12hasFreshDataEv
                0x08017d9c       0x16 build/PROJECT/BlinkerPanel.o
                0x08017d9c                PanelComponent::hasFreshData()
 .text._ZN14PanelComponent7freshenEt
                0x08017db2       0x18 build/PROJECT/BlinkerPanel.o
                0x08017db2                PanelComponent::freshen(unsigned short)
 *fill*         0x08017dca        0x2 
 .text._ZN3LedC2Ev
                0x08017dcc       0x2c build/PROJECT/BlinkerPanel.o
                0x08017dcc                Led::Led()
                0x08017dcc                Led::Led()
 .text._ZN6ButtonC2Ev
                0x08017df8       0x30 build/PROJECT/BlinkerPanel.o
                0x08017df8                Button::Button()
                0x08017df8                Button::Button()
 .text._ZN26GenericHardwareDescription12readHardwareEv
                0x08017e28       0x14 build/ARDUINO/HardwareInterfaces.o
                0x08017e28                GenericHardwareDescription::readHardware()
 .text._ZN26GenericHardwareDescription13writeHardwareEv
                0x08017e3c       0x14 build/ARDUINO/HardwareInterfaces.o
                0x08017e3c                GenericHardwareDescription::writeHardware()
 .text._ZN26GenericHardwareDescriptionC2Ev
                0x08017e50       0x28 build/ARDUINO/HardwareInterfaces.o
                0x08017e50                GenericHardwareDescription::GenericHardwareDescription()
                0x08017e50                GenericHardwareDescription::GenericHardwareDescription()
 .text._ZN10ListObjectC2Ev
                0x08017e78       0x22 build/ARDUINO/Panel.o
                0x08017e78                ListObject::ListObject()
                0x08017e78                ListObject::ListObject()
 .text._ZN26GenericHardwareDescription7getDataEP10DataObject
                0x08017e9a       0x24 build/ARDUINO/PanelComponents.o
                0x08017e9a                GenericHardwareDescription::getData(DataObject*)
 .text._ZN26GenericHardwareDescription7setDataEP10DataObject
                0x08017ebe       0x24 build/ARDUINO/PanelComponents.o
                0x08017ebe                GenericHardwareDescription::setData(DataObject*)
 .text._ZN15KnobParentClass7freshenEt
                0x08017ee2       0x18 build/ARDUINO/PanelComponents.o
                0x08017ee2                KnobParentClass::freshen(unsigned short)
 *fill*         0x08017efa        0x2 
 .text._ZN16Complex10BitKnobC2Ev
                0x08017efc       0x68 build/ARDUINO/PanelComponents.o
                0x08017efc                Complex10BitKnob::Complex10BitKnob()
                0x08017efc                Complex10BitKnob::Complex10BitKnob()
 .text._ZN14CircularBufferItEC2Eh
                0x08017f64       0x50 build/ARDUINO/PanelComponents.o
                0x08017f64                CircularBuffer<unsigned short>::CircularBuffer(unsigned char)
                0x08017f64                CircularBuffer<unsigned short>::CircularBuffer(unsigned char)
 .text._ZN14CircularBufferItE5writeEt
                0x08017fb4       0x5e build/ARDUINO/PanelComponents.o
                0x08017fb4                CircularBuffer<unsigned short>::write(unsigned short)
 .text._ZN14CircularBufferItE4readEh
                0x08018012       0x94 build/ARDUINO/PanelComponents.o
                0x08018012                CircularBuffer<unsigned short>::read(unsigned char)
 *fill*         0x080180a6        0x2 
 .text._ZN5PrintC2Ev
                0x080180a8       0x28 build/ARDUINO/HardwareSerial.o
                0x080180a8                Print::Print()
                0x080180a8                Print::Print()
 .text._ZN6StreamC2Ev
                0x080180d0       0x2c build/ARDUINO/HardwareSerial.o
                0x080180d0                Stream::Stream()
                0x080180d0                Stream::Stream()
 .text._ZSt5isinfd
                0x080180fc       0x5c build/ARDUINO/Print.o
                0x080180fc                std::isinf(double)
 .text._ZSt5isnand
                0x08018158       0x2a build/ARDUINO/Print.o
                0x08018158                std::isnan(double)
 .text._ZNK6String6lengthEv
                0x08018182       0x18 build/ARDUINO/Print.o
                0x08018182                String::length() const
 .text._ZNK6String5c_strEv
                0x0801819a       0x18 build/ARDUINO/Print.o
                0x0801819a                String::c_str() const
 .text._ZN5Print5writeEPKc
                0x080181b2       0x36 build/ARDUINO/Print.o
                0x080181b2                Print::write(char const*)
 .text._ZN5Print5writeEPKcj
                0x080181e8       0x26 build/ARDUINO/Print.o
                0x080181e8                Print::write(char const*, unsigned int)
 *fill*         0x0801820e        0x2 
 .text.Reset_Handler
                0x08018210       0x50 build/HAL/startup_stm32f446xx.o
                0x08018210                Reset_Handler
 .text.Default_Handler
                0x08018260        0x2 build/HAL/startup_stm32f446xx.o
                0x08018260                TIM1_UP_TIM10_IRQHandler
                0x08018260                FMPI2C1_Event_IRQHandler
                0x08018260                Default_Handler
                0x08018260                FMPI2C1_Error_IRQHandler
                0x08018260                SDIO_IRQHandler
 .text._Znwj    0x08018262       0x22 c:/stm32/gcc-arm-none-eabi/bin/../lib/gcc/arm-none-eabi/7.3.1/../../../../arm-none-eabi/lib/thumb/v7e-m/fpv4-sp/hard\libstdc++_nano.a(new_op.o)
                0x08018262                operator new(unsigned int)
 .text._ZdlPv   0x08018284        0x4 c:/stm32/gcc-arm-none-eabi/bin/../lib/gcc/arm-none-eabi/7.3.1/../../../../arm-none-eabi/lib/thumb/v7e-m/fpv4-sp/hard\libstdc++_nano.a(del_op.o)
                0x08018284                operator delete(void*)
 .text._ZL12read_uleb128PKhPm
                0x08018288       0x22 c:/stm32/gcc-arm-none-eabi/bin/../lib/gcc/arm-none-eabi/7.3.1/../../../../arm-none-eabi/lib/thumb/v7e-m/fpv4-sp/hard\libstdc++_nano.a(eh_personality.o)
 .text._ZL12read_sleb128PKhPl
                0x080182aa       0x30 c:/stm32/gcc-arm-none-eabi/bin/../lib/gcc/arm-none-eabi/7.3.1/../../../../arm-none-eabi/lib/thumb/v7e-m/fpv4-sp/hard\libstdc++_nano.a(eh_personality.o)
 .text._ZL28read_encoded_value_with_basehjPKhPj
                0x080182da       0x88 c:/stm32/gcc-arm-none-eabi/bin/../lib/gcc/arm-none-eabi/7.3.1/../../../../arm-none-eabi/lib/thumb/v7e-m/fpv4-sp/hard\libstdc++_nano.a(eh_personality.o)
 .text._Unwind_GetGR
                0x08018362       0x18 c:/stm32/gcc-arm-none-eabi/bin/../lib/gcc/arm-none-eabi/7.3.1/../../../../arm-none-eabi/lib/thumb/v7e-m/fpv4-sp/hard\libstdc++_nano.a(eh_personality.o)
 .text._ZL21base_of_encoded_valuehP15_Unwind_Context.part.3
                0x0801837a       0x44 c:/stm32/gcc-arm-none-eabi/bin/../lib/gcc/arm-none-eabi/7.3.1/../../../../arm-none-eabi/lib/thumb/v7e-m/fpv4-sp/hard\libstdc++_nano.a(eh_personality.o)
 .text._ZL18read_encoded_valueP15_Unwind_ContexthPKhPj
                0x080183be       0x28 c:/stm32/gcc-arm-none-eabi/bin/../lib/gcc/arm-none-eabi/7.3.1/../../../../arm-none-eabi/lib/thumb/v7e-m/fpv4-sp/hard\libstdc++_nano.a(eh_personality.o)
 .text._ZL17parse_lsda_headerP15_Unwind_ContextPKhP16lsda_header_info
                0x080183e6       0x5e c:/stm32/gcc-arm-none-eabi/bin/../lib/gcc/arm-none-eabi/7.3.1/../../../../arm-none-eabi/lib/thumb/v7e-m/fpv4-sp/hard\libstdc++_nano.a(eh_personality.o)
 .text.__gxx_personality_v0
                0x08018444      0x380 c:/stm32/gcc-arm-none-eabi/bin/../lib/gcc/arm-none-eabi/7.3.1/../../../../arm-none-eabi/lib/thumb/v7e-m/fpv4-sp/hard\libstdc++_nano.a(eh_personality.o)
                0x08018444                __gxx_personality_v0
 .text._ZN10__cxxabiv1L24__is_gxx_exception_classEPc
                0x080187c4       0x3a c:/stm32/gcc-arm-none-eabi/bin/../lib/gcc/arm-none-eabi/7.3.1/../../../../arm-none-eabi/lib/thumb/v7e-m/fpv4-sp/hard\libstdc++_nano.a(eh_call.o)
 .text.__cxa_call_terminate
                0x080187fe       0x1e c:/stm32/gcc-arm-none-eabi/bin/../lib/gcc/arm-none-eabi/7.3.1/../../../../arm-none-eabi/lib/thumb/v7e-m/fpv4-sp/hard\libstdc++_nano.a(eh_call.o)
                0x080187fe                __cxa_call_terminate
 .text.__cxa_call_unexpected
                0x0801881c       0x28 c:/stm32/gcc-arm-none-eabi/bin/../lib/gcc/arm-none-eabi/7.3.1/../../../../arm-none-eabi/lib/thumb/v7e-m/fpv4-sp/hard\libstdc++_nano.a(eh_call.o)
                0x0801881c                __cxa_call_unexpected
 .text.__cxa_throw_bad_array_new_length
                0x08018844        0x6 c:/stm32/gcc-arm-none-eabi/bin/../lib/gcc/arm-none-eabi/7.3.1/../../../../arm-none-eabi/lib/thumb/v7e-m/fpv4-sp/hard\libstdc++_nano.a(eh_aux_runtime.o)
                0x08018844                __cxa_throw_bad_array_new_length
 .text._ZdaPv   0x0801884a        0x4 c:/stm32/gcc-arm-none-eabi/bin/../lib/gcc/arm-none-eabi/7.3.1/../../../../arm-none-eabi/lib/thumb/v7e-m/fpv4-sp/hard\libstdc++_nano.a(del_opv.o)
                0x0801884a                operator delete[](void*)
 *fill*         0x0801884e        0x2 
 .text._ZSt15get_new_handlerv
                0x08018850       0x10 c:/stm32/gcc-arm-none-eabi/bin/../lib/gcc/arm-none-eabi/7.3.1/../../../../arm-none-eabi/lib/thumb/v7e-m/fpv4-sp/hard\libstdc++_nano.a(new_handler.o)
                0x08018850                std::get_new_handler()
 .text._ZN10__cxxabiv1L24__is_gxx_exception_classEPc
                0x08018860       0x3a c:/stm32/gcc-arm-none-eabi/bin/../lib/gcc/arm-none-eabi/7.3.1/../../../../arm-none-eabi/lib/thumb/v7e-m/fpv4-sp/hard\libstdc++_nano.a(eh_catch.o)
 .text.__cxa_begin_catch
                0x0801889a       0x54 c:/stm32/gcc-arm-none-eabi/bin/../lib/gcc/arm-none-eabi/7.3.1/../../../../arm-none-eabi/lib/thumb/v7e-m/fpv4-sp/hard\libstdc++_nano.a(eh_catch.o)
                0x0801889a                __cxa_begin_catch
 *fill*         0x080188ee        0x2 
 .text.__cxa_get_globals
                0x080188f0        0x8 c:/stm32/gcc-arm-none-eabi/bin/../lib/gcc/arm-none-eabi/7.3.1/../../../../arm-none-eabi/lib/thumb/v7e-m/fpv4-sp/hard\libstdc++_nano.a(eh_globals.o)
                0x080188f0                __cxa_get_globals
 .text._ZN10__cxxabiv111__terminateEPFvvE
                0x080188f8        0x8 c:/stm32/gcc-arm-none-eabi/bin/../lib/gcc/arm-none-eabi/7.3.1/../../../../arm-none-eabi/lib/thumb/v7e-m/fpv4-sp/hard\libstdc++_nano.a(eh_terminate.o)
                0x080188f8                __cxxabiv1::__terminate(void (*)())
 .text._ZSt13get_terminatev
                0x08018900       0x10 c:/stm32/gcc-arm-none-eabi/bin/../lib/gcc/arm-none-eabi/7.3.1/../../../../arm-none-eabi/lib/thumb/v7e-m/fpv4-sp/hard\libstdc++_nano.a(eh_terminate.o)
                0x08018900                std::get_terminate()
 .text._ZSt9terminatev
                0x08018910        0xa c:/stm32/gcc-arm-none-eabi/bin/../lib/gcc/arm-none-eabi/7.3.1/../../../../arm-none-eabi/lib/thumb/v7e-m/fpv4-sp/hard\libstdc++_nano.a(eh_terminate.o)
                0x08018910                std::terminate()
 .text._ZN10__cxxabiv112__unexpectedEPFvvE
                0x0801891a        0x8 c:/stm32/gcc-arm-none-eabi/bin/../lib/gcc/arm-none-eabi/7.3.1/../../../../arm-none-eabi/lib/thumb/v7e-m/fpv4-sp/hard\libstdc++_nano.a(eh_terminate.o)
                0x0801891a                __cxxabiv1::__unexpected(void (*)())
 *fill*         0x08018922        0x2 
 .text._ZSt14get_unexpectedv
                0x08018924       0x10 c:/stm32/gcc-arm-none-eabi/bin/../lib/gcc/arm-none-eabi/7.3.1/../../../../arm-none-eabi/lib/thumb/v7e-m/fpv4-sp/hard\libstdc++_nano.a(eh_terminate.o)
                0x08018924                std::get_unexpected()
 .text._ZSt10unexpectedv
                0x08018934        0xa c:/stm32/gcc-arm-none-eabi/bin/../lib/gcc/arm-none-eabi/7.3.1/../../../../arm-none-eabi/lib/thumb/v7e-m/fpv4-sp/hard\libstdc++_nano.a(eh_terminate.o)
                0x08018934                std::unexpected()
 .text.__cxa_end_cleanup
                0x0801893e        0xc c:/stm32/gcc-arm-none-eabi/bin/../lib/gcc/arm-none-eabi/7.3.1/../../../../arm-none-eabi/lib/thumb/v7e-m/fpv4-sp/hard\libstdc++_nano.a(eh_arm.o)
                0x0801893e                __cxa_end_cleanup
 .text._ZN10__cxxabiv1L24__is_gxx_exception_classEPc
                0x0801894a       0x3a c:/stm32/gcc-arm-none-eabi/bin/../lib/gcc/arm-none-eabi/7.3.1/../../../../arm-none-eabi/lib/thumb/v7e-m/fpv4-sp/hard\libstdc++_nano.a(eh_arm.o)
 .text.__cxa_type_match
                0x08018984       0xbc c:/stm32/gcc-arm-none-eabi/bin/../lib/gcc/arm-none-eabi/7.3.1/../../../../arm-none-eabi/lib/thumb/v7e-m/fpv4-sp/hard\libstdc++_nano.a(eh_arm.o)
                0x08018984                __cxa_type_match
 .text.__cxa_begin_cleanup
                0x08018a40       0x3a c:/stm32/gcc-arm-none-eabi/bin/../lib/gcc/arm-none-eabi/7.3.1/../../../../arm-none-eabi/lib/thumb/v7e-m/fpv4-sp/hard\libstdc++_nano.a(eh_arm.o)
                0x08018a40                __cxa_begin_cleanup
 .text.__gnu_end_cleanup
                0x08018a7a       0x32 c:/stm32/gcc-arm-none-eabi/bin/../lib/gcc/arm-none-eabi/7.3.1/../../../../arm-none-eabi/lib/thumb/v7e-m/fpv4-sp/hard\libstdc++_nano.a(eh_arm.o)
                0x08018a7a                __gnu_end_cleanup
 .text.__aeabi_atexit
                0x08018aac        0xa c:/stm32/gcc-arm-none-eabi/bin/../lib/gcc/arm-none-eabi/7.3.1/../../../../arm-none-eabi/lib/thumb/v7e-m/fpv4-sp/hard\libstdc++_nano.a(atexit_arm.o)
                0x08018aac                __aeabi_atexit
 .text._Znaj    0x08018ab6        0x4 c:/stm32/gcc-arm-none-eabi/bin/../lib/gcc/arm-none-eabi/7.3.1/../../../../arm-none-eabi/lib/thumb/v7e-m/fpv4-sp/hard\libstdc++_nano.a(new_opv.o)
                0x08018ab6                operator new[](unsigned int)
 .text._ZdlPvj  0x08018aba        0x4 c:/stm32/gcc-arm-none-eabi/bin/../lib/gcc/arm-none-eabi/7.3.1/../../../../arm-none-eabi/lib/thumb/v7e-m/fpv4-sp/hard\libstdc++_nano.a(del_ops.o)
                0x08018aba                operator delete(void*, unsigned int)
 *fill*         0x08018abe        0x2 
 .text._ZN10__cxxabiv120__si_class_type_infoD2Ev
                0x08018ac0       0x14 c:/stm32/gcc-arm-none-eabi/bin/../lib/gcc/arm-none-eabi/7.3.1/../../../../arm-none-eabi/lib/thumb/v7e-m/fpv4-sp/hard\libstdc++_nano.a(si_class_type_info.o)
                0x08018ac0                __cxxabiv1::__si_class_type_info::~__si_class_type_info()
                0x08018ac0                __cxxabiv1::__si_class_type_info::~__si_class_type_info()
 .text._ZN10__cxxabiv120__si_class_type_infoD0Ev
                0x08018ad4       0x14 c:/stm32/gcc-arm-none-eabi/bin/../lib/gcc/arm-none-eabi/7.3.1/../../../../arm-none-eabi/lib/thumb/v7e-m/fpv4-sp/hard\libstdc++_nano.a(si_class_type_info.o)
                0x08018ad4                __cxxabiv1::__si_class_type_info::~__si_class_type_info()
 .text._ZNK10__cxxabiv120__si_class_type_info20__do_find_public_srcEiPKvPKNS_17__class_type_infoES2_
                0x08018ae8       0x38 c:/stm32/gcc-arm-none-eabi/bin/../lib/gcc/arm-none-eabi/7.3.1/../../../../arm-none-eabi/lib/thumb/v7e-m/fpv4-sp/hard\libstdc++_nano.a(si_class_type_info.o)
                0x08018ae8                __cxxabiv1::__si_class_type_info::__do_find_public_src(int, void const*, __cxxabiv1::__class_type_info const*, void const*) const
 .text._ZNK10__cxxabiv120__si_class_type_info12__do_dyncastEiNS_17__class_type_info10__sub_kindEPKS1_PKvS4_S6_RNS1_16__dyncast_resultE
                0x08018b20       0x74 c:/stm32/gcc-arm-none-eabi/bin/../lib/gcc/arm-none-eabi/7.3.1/../../../../arm-none-eabi/lib/thumb/v7e-m/fpv4-sp/hard\libstdc++_nano.a(si_class_type_info.o)
                0x08018b20                __cxxabiv1::__si_class_type_info::__do_dyncast(int, __cxxabiv1::__class_type_info::__sub_kind, __cxxabiv1::__class_type_info const*, void const*, __cxxabiv1::__class_type_info const*, void const*, __cxxabiv1::__class_type_info::__dyncast_result&) const
 .text._ZNK10__cxxabiv120__si_class_type_info11__do_upcastEPKNS_17__class_type_infoEPKvRNS1_15__upcast_resultE
                0x08018b94       0x2a c:/stm32/gcc-arm-none-eabi/bin/../lib/gcc/arm-none-eabi/7.3.1/../../../../arm-none-eabi/lib/thumb/v7e-m/fpv4-sp/hard\libstdc++_nano.a(si_class_type_info.o)
                0x08018b94                __cxxabiv1::__si_class_type_info::__do_upcast(__cxxabiv1::__class_type_info const*, void const*, __cxxabiv1::__class_type_info::__upcast_result&) const
 .text._ZNSt9type_infoD2Ev
                0x08018bbe        0x2 c:/stm32/gcc-arm-none-eabi/bin/../lib/gcc/arm-none-eabi/7.3.1/../../../../arm-none-eabi/lib/thumb/v7e-m/fpv4-sp/hard\libstdc++_nano.a(tinfo.o)
                0x08018bbe                std::type_info::~type_info()
                0x08018bbe                std::type_info::~type_info()
 .text._ZNKSt9type_info14__is_pointer_pEv
                0x08018bc0        0x4 c:/stm32/gcc-arm-none-eabi/bin/../lib/gcc/arm-none-eabi/7.3.1/../../../../arm-none-eabi/lib/thumb/v7e-m/fpv4-sp/hard\libstdc++_nano.a(tinfo.o)
                0x08018bc0                std::type_info::__is_pointer_p() const
                0x08018bc0                std::type_info::__is_function_p() const
 .text._ZNKSt9type_infoeqERKS_
                0x08018bc4       0x2c c:/stm32/gcc-arm-none-eabi/bin/../lib/gcc/arm-none-eabi/7.3.1/../../../../arm-none-eabi/lib/thumb/v7e-m/fpv4-sp/hard\libstdc++_nano.a(tinfo.o)
                0x08018bc4                std::type_info::operator==(std::type_info const&) const
 .text._ZNK10__cxxabiv117__class_type_info11__do_upcastEPKS0_PPv
                0x08018bf0       0x34 c:/stm32/gcc-arm-none-eabi/bin/../lib/gcc/arm-none-eabi/7.3.1/../../../../arm-none-eabi/lib/thumb/v7e-m/fpv4-sp/hard\libstdc++_nano.a(class_type_info.o)
                0x08018bf0                __cxxabiv1::__class_type_info::__do_upcast(__cxxabiv1::__class_type_info const*, void**) const
 .text._ZNK10__cxxabiv117__class_type_info20__do_find_public_srcEiPKvPKS0_S2_
                0x08018c24        0xc c:/stm32/gcc-arm-none-eabi/bin/../lib/gcc/arm-none-eabi/7.3.1/../../../../arm-none-eabi/lib/thumb/v7e-m/fpv4-sp/hard\libstdc++_nano.a(class_type_info.o)
                0x08018c24                __cxxabiv1::__class_type_info::__do_find_public_src(int, void const*, __cxxabiv1::__class_type_info const*, void const*) const
 .text._ZN10__cxxabiv117__class_type_infoD2Ev
                0x08018c30       0x14 c:/stm32/gcc-arm-none-eabi/bin/../lib/gcc/arm-none-eabi/7.3.1/../../../../arm-none-eabi/lib/thumb/v7e-m/fpv4-sp/hard\libstdc++_nano.a(class_type_info.o)
                0x08018c30                __cxxabiv1::__class_type_info::~__class_type_info()
                0x08018c30                __cxxabiv1::__class_type_info::~__class_type_info()
 .text._ZN10__cxxabiv117__class_type_infoD0Ev
                0x08018c44       0x14 c:/stm32/gcc-arm-none-eabi/bin/../lib/gcc/arm-none-eabi/7.3.1/../../../../arm-none-eabi/lib/thumb/v7e-m/fpv4-sp/hard\libstdc++_nano.a(class_type_info.o)
                0x08018c44                __cxxabiv1::__class_type_info::~__class_type_info()
 .text._ZNK10__cxxabiv117__class_type_info12__do_dyncastEiNS0_10__sub_kindEPKS0_PKvS3_S5_RNS0_16__dyncast_resultE
                0x08018c58       0x3a c:/stm32/gcc-arm-none-eabi/bin/../lib/gcc/arm-none-eabi/7.3.1/../../../../arm-none-eabi/lib/thumb/v7e-m/fpv4-sp/hard\libstdc++_nano.a(class_type_info.o)
                0x08018c58                __cxxabiv1::__class_type_info::__do_dyncast(int, __cxxabiv1::__class_type_info::__sub_kind, __cxxabiv1::__class_type_info const*, void const*, __cxxabiv1::__class_type_info const*, void const*, __cxxabiv1::__class_type_info::__dyncast_result&) const
 .text._ZNK10__cxxabiv117__class_type_info11__do_upcastEPKS0_PKvRNS0_15__upcast_resultE
                0x08018c92       0x18 c:/stm32/gcc-arm-none-eabi/bin/../lib/gcc/arm-none-eabi/7.3.1/../../../../arm-none-eabi/lib/thumb/v7e-m/fpv4-sp/hard\libstdc++_nano.a(class_type_info.o)
                0x08018c92                __cxxabiv1::__class_type_info::__do_upcast(__cxxabiv1::__class_type_info const*, void const*, __cxxabiv1::__class_type_info::__upcast_result&) const
 .text._ZNK10__cxxabiv117__class_type_info10__do_catchEPKSt9type_infoPPvj
                0x08018caa       0x2a c:/stm32/gcc-arm-none-eabi/bin/../lib/gcc/arm-none-eabi/7.3.1/../../../../arm-none-eabi/lib/thumb/v7e-m/fpv4-sp/hard\libstdc++_nano.a(class_type_info.o)
                0x08018caa                __cxxabiv1::__class_type_info::__do_catch(std::type_info const*, void**, unsigned int) const
 .text.abort    0x08018cd4        0xe c:/stm32/gcc-arm-none-eabi/bin/../lib/gcc/arm-none-eabi/7.3.1/../../../../arm-none-eabi/lib/thumb/v7e-m/fpv4-sp/hard\libc_nano.a(lib_a-abort.o)
                0x08018cd4                abort
 *fill*         0x08018ce2        0x2 
 .text.__cxa_atexit
                0x08018ce4       0x1c c:/stm32/gcc-arm-none-eabi/bin/../lib/gcc/arm-none-eabi/7.3.1/../../../../arm-none-eabi/lib/thumb/v7e-m/fpv4-sp/hard\libc_nano.a(lib_a-cxa_atexit.o)
                0x08018ce4                __cxa_atexit
 .text.__libc_init_array
                0x08018d00       0x48 c:/stm32/gcc-arm-none-eabi/bin/../lib/gcc/arm-none-eabi/7.3.1/../../../../arm-none-eabi/lib/thumb/v7e-m/fpv4-sp/hard\libc_nano.a(lib_a-init.o)
                0x08018d00                __libc_init_array
 .text.malloc   0x08018d48       0x10 c:/stm32/gcc-arm-none-eabi/bin/../lib/gcc/arm-none-eabi/7.3.1/../../../../arm-none-eabi/lib/thumb/v7e-m/fpv4-sp/hard\libc_nano.a(lib_a-malloc.o)
                0x08018d48                malloc
 .text.free     0x08018d58       0x10 c:/stm32/gcc-arm-none-eabi/bin/../lib/gcc/arm-none-eabi/7.3.1/../../../../arm-none-eabi/lib/thumb/v7e-m/fpv4-sp/hard\libc_nano.a(lib_a-malloc.o)
                0x08018d58                free
 .text.memcpy   0x08018d68       0x16 c:/stm32/gcc-arm-none-eabi/bin/../lib/gcc/arm-none-eabi/7.3.1/../../../../arm-none-eabi/lib/thumb/v7e-m/fpv4-sp/hard\libc_nano.a(lib_a-memcpy-stub.o)
                0x08018d68                memcpy
 .text.memmove  0x08018d7e       0x32 c:/stm32/gcc-arm-none-eabi/bin/../lib/gcc/arm-none-eabi/7.3.1/../../../../arm-none-eabi/lib/thumb/v7e-m/fpv4-sp/hard\libc_nano.a(lib_a-memmove.o)
                0x08018d7e                memmove
 .text.memset   0x08018db0       0x10 c:/stm32/gcc-arm-none-eabi/bin/../lib/gcc/arm-none-eabi/7.3.1/../../../../arm-none-eabi/lib/thumb/v7e-m/fpv4-sp/hard\libc_nano.a(lib_a-memset.o)
                0x08018db0                memset
 .text._free_r  0x08018dc0       0x9c c:/stm32/gcc-arm-none-eabi/bin/../lib/gcc/arm-none-eabi/7.3.1/../../../../arm-none-eabi/lib/thumb/v7e-m/fpv4-sp/hard\libc_nano.a(lib_a-nano-freer.o)
                0x08018dc0                _free_r
 .text._malloc_r
                0x08018e5c       0xb4 c:/stm32/gcc-arm-none-eabi/bin/../lib/gcc/arm-none-eabi/7.3.1/../../../../arm-none-eabi/lib/thumb/v7e-m/fpv4-sp/hard\libc_nano.a(lib_a-nano-mallocr.o)
                0x08018e5c                _malloc_r
 .text._sbrk_r  0x08018f10       0x20 c:/stm32/gcc-arm-none-eabi/bin/../lib/gcc/arm-none-eabi/7.3.1/../../../../arm-none-eabi/lib/thumb/v7e-m/fpv4-sp/hard\libc_nano.a(lib_a-sbrkr.o)
                0x08018f10                _sbrk_r
 .text._raise_r
                0x08018f30       0x50 c:/stm32/gcc-arm-none-eabi/bin/../lib/gcc/arm-none-eabi/7.3.1/../../../../arm-none-eabi/lib/thumb/v7e-m/fpv4-sp/hard\libc_nano.a(lib_a-signal.o)
                0x08018f30                _raise_r
 .text.raise    0x08018f80       0x10 c:/stm32/gcc-arm-none-eabi/bin/../lib/gcc/arm-none-eabi/7.3.1/../../../../arm-none-eabi/lib/thumb/v7e-m/fpv4-sp/hard\libc_nano.a(lib_a-signal.o)
                0x08018f80                raise
 .text._kill_r  0x08018f90       0x24 c:/stm32/gcc-arm-none-eabi/bin/../lib/gcc/arm-none-eabi/7.3.1/../../../../arm-none-eabi/lib/thumb/v7e-m/fpv4-sp/hard\libc_nano.a(lib_a-signalr.o)
                0x08018f90                _kill_r
 .text._getpid_r
                0x08018fb4        0x4 c:/stm32/gcc-arm-none-eabi/bin/../lib/gcc/arm-none-eabi/7.3.1/../../../../arm-none-eabi/lib/thumb/v7e-m/fpv4-sp/hard\libc_nano.a(lib_a-signalr.o)
                0x08018fb4                _getpid_r
 .text.sprintf  0x08018fb8       0x40 c:/stm32/gcc-arm-none-eabi/bin/../lib/gcc/arm-none-eabi/7.3.1/../../../../arm-none-eabi/lib/thumb/v7e-m/fpv4-sp/hard\libc_nano.a(lib_a-sprintf.o)
                0x08018fb8                siprintf
                0x08018fb8                sprintf
 .text.__malloc_lock
                0x08018ff8        0x2 c:/stm32/gcc-arm-none-eabi/bin/../lib/gcc/arm-none-eabi/7.3.1/../../../../arm-none-eabi/lib/thumb/v7e-m/fpv4-sp/hard\libc_nano.a(lib_a-mlock.o)
                0x08018ff8                __malloc_lock
 .text.__malloc_unlock
                0x08018ffa        0x2 c:/stm32/gcc-arm-none-eabi/bin/../lib/gcc/arm-none-eabi/7.3.1/../../../../arm-none-eabi/lib/thumb/v7e-m/fpv4-sp/hard\libc_nano.a(lib_a-mlock.o)
                0x08018ffa                __malloc_unlock
 .text._realloc_r
                0x08018ffc       0x4c c:/stm32/gcc-arm-none-eabi/bin/../lib/gcc/arm-none-eabi/7.3.1/../../../../arm-none-eabi/lib/thumb/v7e-m/fpv4-sp/hard\libc_nano.a(lib_a-nano-reallocr.o)
                0x08018ffc                _realloc_r
 .text.__ssputs_r
                0x08019048       0xb4 c:/stm32/gcc-arm-none-eabi/bin/../lib/gcc/arm-none-eabi/7.3.1/../../../../arm-none-eabi/lib/thumb/v7e-m/fpv4-sp/hard\libc_nano.a(lib_a-nano-svfprintf.o)
                0x08019048                __ssputs_r
 .text._svfprintf_r
                0x080190fc      0x1f0 c:/stm32/gcc-arm-none-eabi/bin/../lib/gcc/arm-none-eabi/7.3.1/../../../../arm-none-eabi/lib/thumb/v7e-m/fpv4-sp/hard\libc_nano.a(lib_a-nano-svfprintf.o)
                0x080190fc                _svfiprintf_r
                0x080190fc                _svfprintf_r
 .text._printf_common
                0x080192ec       0xea c:/stm32/gcc-arm-none-eabi/bin/../lib/gcc/arm-none-eabi/7.3.1/../../../../arm-none-eabi/lib/thumb/v7e-m/fpv4-sp/hard\libc_nano.a(lib_a-nano-vfprintf_i.o)
                0x080192ec                _printf_common
 *fill*         0x080193d6        0x2 
 .text._printf_i
                0x080193d8      0x224 c:/stm32/gcc-arm-none-eabi/bin/../lib/gcc/arm-none-eabi/7.3.1/../../../../arm-none-eabi/lib/thumb/v7e-m/fpv4-sp/hard\libc_nano.a(lib_a-nano-vfprintf_i.o)
                0x080193d8                _printf_i
 .text._malloc_usable_size_r
                0x080195fc       0x10 c:/stm32/gcc-arm-none-eabi/bin/../lib/gcc/arm-none-eabi/7.3.1/../../../../arm-none-eabi/lib/thumb/v7e-m/fpv4-sp/hard\libc_nano.a(lib_a-nano-msizer.o)
                0x080195fc                _malloc_usable_size_r
 .text._getpid  0x0801960c       0x10 c:/stm32/gcc-arm-none-eabi/bin/../lib/gcc/arm-none-eabi/7.3.1/../../../../arm-none-eabi/lib/thumb/v7e-m/fpv4-sp/hard\libnosys.a(getpid.o)
                0x0801960c                _getpid
 .text._kill    0x0801961c       0x10 c:/stm32/gcc-arm-none-eabi/bin/../lib/gcc/arm-none-eabi/7.3.1/../../../../arm-none-eabi/lib/thumb/v7e-m/fpv4-sp/hard\libnosys.a(kill.o)
                0x0801961c                _kill
 .text._sbrk    0x0801962c       0x1c c:/stm32/gcc-arm-none-eabi/bin/../lib/gcc/arm-none-eabi/7.3.1/../../../../arm-none-eabi/lib/thumb/v7e-m/fpv4-sp/hard\libnosys.a(sbrk.o)
                0x0801962c                _sbrk
 .text._exit    0x08019648        0x4 c:/stm32/gcc-arm-none-eabi/bin/../lib/gcc/arm-none-eabi/7.3.1/../../../../arm-none-eabi/lib/thumb/v7e-m/fpv4-sp/hard\libnosys.a(_exit.o)
                0x08019648                _exit
 *(.glue_7)
 .glue_7        0x0801964c        0x0 linker stubs
 *(.glue_7t)
 .glue_7t       0x0801964c        0x0 linker stubs
 *(.eh_frame)
 .eh_frame      0x0801964c        0x0 c:/stm32/gcc-arm-none-eabi/bin/../lib/gcc/arm-none-eabi/7.3.1/thumb/v7e-m/fpv4-sp/hard/crtbegin.o
 *(.init)
 .init          0x0801964c        0x4 c:/stm32/gcc-arm-none-eabi/bin/../lib/gcc/arm-none-eabi/7.3.1/thumb/v7e-m/fpv4-sp/hard/crti.o
                0x0801964c                _init
 .init          0x08019650        0x8 c:/stm32/gcc-arm-none-eabi/bin/../lib/gcc/arm-none-eabi/7.3.1/thumb/v7e-m/fpv4-sp/hard/crtn.o
 *(.fini)
 .fini          0x08019658        0x4 c:/stm32/gcc-arm-none-eabi/bin/../lib/gcc/arm-none-eabi/7.3.1/thumb/v7e-m/fpv4-sp/hard/crti.o
                0x08019658                _fini
 .fini          0x0801965c        0x8 c:/stm32/gcc-arm-none-eabi/bin/../lib/gcc/arm-none-eabi/7.3.1/thumb/v7e-m/fpv4-sp/hard/crtn.o
                0x08019664                . = ALIGN (0x4)
                0x08019664                _etext = .

.vfp11_veneer   0x08019664        0x0
 .vfp11_veneer  0x08019664        0x0 linker stubs

.v4_bx          0x08019664        0x0
 .v4_bx         0x08019664        0x0 linker stubs

.iplt           0x08019664        0x0
 .iplt          0x08019664        0x0 c:/stm32/gcc-arm-none-eabi/bin/../lib/gcc/arm-none-eabi/7.3.1/thumb/v7e-m/fpv4-sp/hard/crtbegin.o

.rodata         0x08019664      0x5f4
                0x08019664                . = ALIGN (0x4)
 *(.rodata)
 .rodata        0x08019664       0x16 build/PROJECT/sketch.o
 *fill*         0x0801967a        0x2 
 .rodata        0x0801967c       0x23 build/PROJECT/midiTime.o
 *fill*         0x0801969f        0x1 
 .rodata        0x080196a0      0x158 build/PROJECT/BlinkerPanel.o
 .rodata        0x080197f8        0xc build/PROJECT/StatusPanel.o
 .rodata        0x08019804       0x30 build/ARDUINO/HardwareInterfaces.o
                0x08019804                vtable for ArduinoAnalogIn
                0x08019814                vtable for ArduinoDigitalOut
                0x08019824                vtable for ArduinoDigitalIn
 .rodata        0x08019834       0xb0 build/ARDUINO/PanelComponents.o
                0x08019834                vtable for Windowed10BitKnob
                0x0801984c                vtable for Hysteresis10BitKnob
                0x08019864                vtable for Complex10BitKnob
                0x0801987c                vtable for Simple10BitKnob
                0x08019894                vtable for Simple8BitKnob
                0x080198ac                vtable for KnobParentClass
                0x080198c4                vtable for Led
                0x080198d4                vtable for Button
 .rodata        0x080198e4      0x120 build/ARDUINO/GPIO.o
 .rodata        0x08019a04       0x20 build/ARDUINO/HardwareSerial.o
                0x08019a04                vtable for HardwareSerial
 .rodata        0x08019a24       0x24 build/ARDUINO/Print.o
                0x08019a38                vtable for Print
 .rodata        0x08019a48       0x10 build/HAL/main.o
 .rodata        0x08019a58        0xf build/HAL/adc.o
 *fill*         0x08019a67        0x1 
 .rodata        0x08019a68        0xf build/HAL/spi.o
 *fill*         0x08019a77        0x1 
 .rodata        0x08019a78        0xf build/HAL/tim.o
 *fill*         0x08019a87        0x1 
 .rodata        0x08019a88       0x11 build/HAL/usart.o
 *fill*         0x08019a99        0x3 
 .rodata        0x08019a9c        0x8 build/HAL/stm32f4xx_hal_dma.o
 .rodata        0x08019aa4       0x18 build/HAL/system_stm32f4xx.o
                0x08019aa4                AHBPrescTable
                0x08019ab4                APBPrescTable
 *(.rodata*)
 .rodata._ZTV14PanelComponent
                0x08019abc       0x10 build/PROJECT/BlinkerPanel.o
                0x08019abc                vtable for PanelComponent
 .rodata._ZTV26GenericHardwareDescription
                0x08019acc       0x10 build/ARDUINO/HardwareInterfaces.o
                0x08019acc                vtable for GenericHardwareDescription
 .rodata._ZTV6Stream
                0x08019adc       0x20 build/ARDUINO/HardwareSerial.o
                0x08019adc                vtable for Stream
 .rodata._ZTIN10__cxxabiv115__forced_unwindE
                0x08019afc        0x8 c:/stm32/gcc-arm-none-eabi/bin/../lib/gcc/arm-none-eabi/7.3.1/../../../../arm-none-eabi/lib/thumb/v7e-m/fpv4-sp/hard\libstdc++_nano.a(eh_exception.o)
                0x08019afc                typeinfo for __cxxabiv1::__forced_unwind
 .rodata._ZTIN10__cxxabiv119__foreign_exceptionE
                0x08019b04        0x8 c:/stm32/gcc-arm-none-eabi/bin/../lib/gcc/arm-none-eabi/7.3.1/../../../../arm-none-eabi/lib/thumb/v7e-m/fpv4-sp/hard\libstdc++_nano.a(eh_exception.o)
                0x08019b04                typeinfo for __cxxabiv1::__foreign_exception
 .rodata._ZTSN10__cxxabiv115__forced_unwindE
                0x08019b0c       0x20 c:/stm32/gcc-arm-none-eabi/bin/../lib/gcc/arm-none-eabi/7.3.1/../../../../arm-none-eabi/lib/thumb/v7e-m/fpv4-sp/hard\libstdc++_nano.a(eh_exception.o)
                0x08019b0c                typeinfo name for __cxxabiv1::__forced_unwind
 .rodata._ZTSN10__cxxabiv119__foreign_exceptionE
                0x08019b2c       0x24 c:/stm32/gcc-arm-none-eabi/bin/../lib/gcc/arm-none-eabi/7.3.1/../../../../arm-none-eabi/lib/thumb/v7e-m/fpv4-sp/hard\libstdc++_nano.a(eh_exception.o)
                0x08019b2c                typeinfo name for __cxxabiv1::__foreign_exception
 .rodata._ZTIN10__cxxabiv120__si_class_type_infoE
                0x08019b50        0xc c:/stm32/gcc-arm-none-eabi/bin/../lib/gcc/arm-none-eabi/7.3.1/../../../../arm-none-eabi/lib/thumb/v7e-m/fpv4-sp/hard\libstdc++_nano.a(si_class_type_info.o)
                0x08019b50                typeinfo for __cxxabiv1::__si_class_type_info
 .rodata._ZTSN10__cxxabiv120__si_class_type_infoE
                0x08019b5c       0x25 c:/stm32/gcc-arm-none-eabi/bin/../lib/gcc/arm-none-eabi/7.3.1/../../../../arm-none-eabi/lib/thumb/v7e-m/fpv4-sp/hard\libstdc++_nano.a(si_class_type_info.o)
                0x08019b5c                typeinfo name for __cxxabiv1::__si_class_type_info
 *fill*         0x08019b81        0x3 
 .rodata._ZTVN10__cxxabiv120__si_class_type_infoE
                0x08019b84       0x2c c:/stm32/gcc-arm-none-eabi/bin/../lib/gcc/arm-none-eabi/7.3.1/../../../../arm-none-eabi/lib/thumb/v7e-m/fpv4-sp/hard\libstdc++_nano.a(si_class_type_info.o)
                0x08019b84                vtable for __cxxabiv1::__si_class_type_info
 .rodata._ZTISt9type_info
                0x08019bb0        0x8 c:/stm32/gcc-arm-none-eabi/bin/../lib/gcc/arm-none-eabi/7.3.1/../../../../arm-none-eabi/lib/thumb/v7e-m/fpv4-sp/hard\libstdc++_nano.a(tinfo.o)
                0x08019bb0                typeinfo for std::type_info
 .rodata._ZTSSt9type_info
                0x08019bb8        0xd c:/stm32/gcc-arm-none-eabi/bin/../lib/gcc/arm-none-eabi/7.3.1/../../../../arm-none-eabi/lib/thumb/v7e-m/fpv4-sp/hard\libstdc++_nano.a(tinfo.o)
                0x08019bb8                typeinfo name for std::type_info
 *fill*         0x08019bc5        0x3 
 .rodata._ZTIN10__cxxabiv117__class_type_infoE
                0x08019bc8        0xc c:/stm32/gcc-arm-none-eabi/bin/../lib/gcc/arm-none-eabi/7.3.1/../../../../arm-none-eabi/lib/thumb/v7e-m/fpv4-sp/hard\libstdc++_nano.a(class_type_info.o)
                0x08019bc8                typeinfo for __cxxabiv1::__class_type_info
 .rodata._ZTSN10__cxxabiv117__class_type_infoE
                0x08019bd4       0x22 c:/stm32/gcc-arm-none-eabi/bin/../lib/gcc/arm-none-eabi/7.3.1/../../../../arm-none-eabi/lib/thumb/v7e-m/fpv4-sp/hard\libstdc++_nano.a(class_type_info.o)
                0x08019bd4                typeinfo name for __cxxabiv1::__class_type_info
 *fill*         0x08019bf6        0x2 
 .rodata._ZTVN10__cxxabiv117__class_type_infoE
                0x08019bf8       0x2c c:/stm32/gcc-arm-none-eabi/bin/../lib/gcc/arm-none-eabi/7.3.1/../../../../arm-none-eabi/lib/thumb/v7e-m/fpv4-sp/hard\libstdc++_nano.a(class_type_info.o)
                0x08019bf8                vtable for __cxxabiv1::__class_type_info
 .rodata._svfprintf_r.str1.1
                0x08019c24       0x11 c:/stm32/gcc-arm-none-eabi/bin/../lib/gcc/arm-none-eabi/7.3.1/../../../../arm-none-eabi/lib/thumb/v7e-m/fpv4-sp/hard\libc_nano.a(lib_a-nano-svfprintf.o)
 .rodata._printf_i.str1.1
                0x08019c35       0x22 c:/stm32/gcc-arm-none-eabi/bin/../lib/gcc/arm-none-eabi/7.3.1/../../../../arm-none-eabi/lib/thumb/v7e-m/fpv4-sp/hard\libc_nano.a(lib_a-nano-vfprintf_i.o)
                0x08019c58                . = ALIGN (0x4)
 *fill*         0x08019c57        0x1 

.ARM.extab      0x08019c58      0x5c0
 *(.ARM.extab* .gnu.linkonce.armextab.*)
 .ARM.extab.text._ZN14HardwareSerial5beginEm
                0x08019c58        0xc build/PROJECT/sketch.o
 .ARM.extab.text._ZN14HardwareSerial5writeEj
                0x08019c64        0xc build/PROJECT/sketch.o
 .ARM.extab.text._ZN14HardwareSerial5writeEi
                0x08019c70        0xc build/PROJECT/sketch.o
 .ARM.extab.text._ZN12BlinkerPanel8getStateEv
                0x08019c7c        0x0 build/PROJECT/sketch.o
 .ARM.extab.text._ZN12SegmentVideoC2Ev
                0x08019c7c        0xc build/PROJECT/sketch.o
 .ARM.extab     0x08019c88       0x18 build/PROJECT/sketch.o
 .ARM.extab.text._ZN4midi13MidiInterfaceI14HardwareSerialNS_15DefaultSettingsEEC2ERS1_
                0x08019ca0        0x0 build/PROJECT/sketch.o
 .ARM.extab.text._ZN4midi13MidiInterfaceI14HardwareSerialNS_15DefaultSettingsEE14setHandleClockEPFvvE
                0x08019ca0        0x0 build/PROJECT/sketch.o
 .ARM.extab.text._ZN4midi13MidiInterfaceI14HardwareSerialNS_15DefaultSettingsEE14setHandleStartEPFvvE
                0x08019ca0        0x0 build/PROJECT/sketch.o
 .ARM.extab.text._ZN4midi13MidiInterfaceI14HardwareSerialNS_15DefaultSettingsEE17setHandleContinueEPFvvE
                0x08019ca0        0x0 build/PROJECT/sketch.o
 .ARM.extab.text._ZN4midi13MidiInterfaceI14HardwareSerialNS_15DefaultSettingsEE13setHandleStopEPFvvE
                0x08019ca0        0x0 build/PROJECT/sketch.o
 .ARM.extab.text._ZN4midi13MidiInterfaceI14HardwareSerialNS_15DefaultSettingsEE15setHandleNoteOnEPFvhhhE
                0x08019ca0        0x0 build/PROJECT/sketch.o
 .ARM.extab.text._ZN4midi13MidiInterfaceI14HardwareSerialNS_15DefaultSettingsEE16setHandleNoteOffEPFvhhhE
                0x08019ca0        0x0 build/PROJECT/sketch.o
 .ARM.extab.text._ZN4midi13MidiInterfaceI14HardwareSerialNS_15DefaultSettingsEE5beginEh
                0x08019ca0        0xc build/PROJECT/sketch.o
 .ARM.extab.text._ZN4midi13MidiInterfaceI14HardwareSerialNS_15DefaultSettingsEE4readEv
                0x08019cac        0xc build/PROJECT/sketch.o
 .ARM.extab.text._ZN4midi7MessageILj128EEC2Ev
                0x08019cb8        0x0 build/PROJECT/sketch.o
 .ARM.extab.text._ZN4midi13MidiInterfaceI14HardwareSerialNS_15DefaultSettingsEE4readEh
                0x08019cb8        0xc build/PROJECT/sketch.o
 .ARM.extab.text._ZN4midi13MidiInterfaceI14HardwareSerialNS_15DefaultSettingsEE5parseEv
                0x08019cc4        0xc build/PROJECT/sketch.o
 .ARM.extab.text._ZN4midi13MidiInterfaceI14HardwareSerialNS_15DefaultSettingsEE33handleNullVelocityNoteOnAsNoteOffEv
                0x08019cd0        0x0 build/PROJECT/sketch.o
 .ARM.extab.text._ZN4midi13MidiInterfaceI14HardwareSerialNS_15DefaultSettingsEE11inputFilterEh
                0x08019cd0        0x0 build/PROJECT/sketch.o
 .ARM.extab.text._ZN4midi13MidiInterfaceI14HardwareSerialNS_15DefaultSettingsEE14launchCallbackEv
                0x08019cd0        0xc build/PROJECT/sketch.o
 .ARM.extab.text._ZN4midi13MidiInterfaceI14HardwareSerialNS_15DefaultSettingsEE10thruFilterEh
                0x08019cdc        0xc build/PROJECT/sketch.o
 .ARM.extab.text._ZN4midi13MidiInterfaceI14HardwareSerialNS_15DefaultSettingsEE16isChannelMessageENS_8MidiTypeE
                0x08019ce8        0x0 build/PROJECT/sketch.o
 .ARM.extab.text._ZN4midi13MidiInterfaceI14HardwareSerialNS_15DefaultSettingsEE21getTypeFromStatusByteEh
                0x08019ce8        0x0 build/PROJECT/sketch.o
 .ARM.extab.text._ZN4midi13MidiInterfaceI14HardwareSerialNS_15DefaultSettingsEE10resetInputEv
                0x08019ce8        0x0 build/PROJECT/sketch.o
 .ARM.extab.text._ZN4midi13MidiInterfaceI14HardwareSerialNS_15DefaultSettingsEE24getChannelFromStatusByteEh
                0x08019ce8        0x0 build/PROJECT/sketch.o
 .ARM.extab.text._ZNK4midi13MidiInterfaceI14HardwareSerialNS_15DefaultSettingsEE7getTypeEv
                0x08019ce8        0x0 build/PROJECT/sketch.o
 .ARM.extab.text._ZNK4midi13MidiInterfaceI14HardwareSerialNS_15DefaultSettingsEE8getData2Ev
                0x08019ce8        0x0 build/PROJECT/sketch.o
 .ARM.extab.text._ZNK4midi7MessageILj128EE12getSysExSizeEv
                0x08019ce8        0x0 build/PROJECT/sketch.o
 .ARM.extab.text._ZN4midi13MidiInterfaceI14HardwareSerialNS_15DefaultSettingsEE4sendENS_8MidiTypeEhhh
                0x08019ce8        0xc build/PROJECT/sketch.o
 .ARM.extab.text._ZN4midi13MidiInterfaceI14HardwareSerialNS_15DefaultSettingsEE12sendRealTimeENS_8MidiTypeE
                0x08019cf4        0xc build/PROJECT/sketch.o
 .ARM.extab.text._ZN4midi13MidiInterfaceI14HardwareSerialNS_15DefaultSettingsEE9sendSysExEjPKhb
                0x08019d00        0xc build/PROJECT/sketch.o
 .ARM.extab.text._ZNK4midi13MidiInterfaceI14HardwareSerialNS_15DefaultSettingsEE19getSysExArrayLengthEv
                0x08019d0c        0x0 build/PROJECT/sketch.o
 .ARM.extab.text._ZNK4midi13MidiInterfaceI14HardwareSerialNS_15DefaultSettingsEE13getSysExArrayEv
                0x08019d0c        0x0 build/PROJECT/sketch.o
 .ARM.extab.text._ZN4midi13MidiInterfaceI14HardwareSerialNS_15DefaultSettingsEE14sendSongSelectEh
                0x08019d0c        0xc build/PROJECT/sketch.o
 .ARM.extab.text._ZN4midi13MidiInterfaceI14HardwareSerialNS_15DefaultSettingsEE16sendSongPositionEj
                0x08019d18        0xc build/PROJECT/sketch.o
 .ARM.extab.text._ZN4midi13MidiInterfaceI14HardwareSerialNS_15DefaultSettingsEE24sendTimeCodeQuarterFrameEhh
                0x08019d24        0xc build/PROJECT/sketch.o
 .ARM.extab.text._ZNK4midi13MidiInterfaceI14HardwareSerialNS_15DefaultSettingsEE9getStatusENS_8MidiTypeEh
                0x08019d30        0x0 build/PROJECT/sketch.o
 .ARM.extab.text._ZN4midi13MidiInterfaceI14HardwareSerialNS_15DefaultSettingsEE24sendTimeCodeQuarterFrameEh
                0x08019d30        0xc build/PROJECT/sketch.o
 .ARM.extab.text._ZN4midi13MidiInterfaceI14HardwareSerialNS_15DefaultSettingsEED2Ev
                0x08019d3c        0x0 build/PROJECT/sketch.o
 .ARM.extab     0x08019d3c       0x48 build/PROJECT/midiTime.o
 .ARM.extab.text._ZN14PanelComponentC2Ev
                0x08019d84        0x0 build/PROJECT/BlinkerPanel.o
 .ARM.extab.text._ZN14PanelComponent12hasFreshDataEv
                0x08019d84        0x0 build/PROJECT/BlinkerPanel.o
 .ARM.extab.text._ZN14PanelComponent7freshenEt
                0x08019d84        0x0 build/PROJECT/BlinkerPanel.o
 .ARM.extab.text._ZN3LedC2Ev
                0x08019d84        0x0 build/PROJECT/BlinkerPanel.o
 .ARM.extab.text._ZN6ButtonC2Ev
                0x08019d84        0xc build/PROJECT/BlinkerPanel.o
 .ARM.extab     0x08019d90       0xe4 build/PROJECT/BlinkerPanel.o
 .ARM.extab     0x08019e74       0x4c build/PROJECT/StatusPanel.o
 .ARM.extab     0x08019ec0        0xc build/PROJECT/SegmentVideo.o
 .ARM.extab.text._ZN26GenericHardwareDescription12readHardwareEv
                0x08019ecc        0x0 build/ARDUINO/HardwareInterfaces.o
 .ARM.extab.text._ZN26GenericHardwareDescription13writeHardwareEv
                0x08019ecc        0x0 build/ARDUINO/HardwareInterfaces.o
 .ARM.extab.text._ZN26GenericHardwareDescriptionC2Ev
                0x08019ecc        0xc build/ARDUINO/HardwareInterfaces.o
 .ARM.extab     0x08019ed8       0x48 build/ARDUINO/HardwareInterfaces.o
 .ARM.extab.text._ZN10ListObjectC2Ev
                0x08019f20        0x0 build/ARDUINO/Panel.o
 .ARM.extab     0x08019f20       0x18 build/ARDUINO/Panel.o
 .ARM.extab.text._ZN26GenericHardwareDescription7getDataEP10DataObject
                0x08019f38        0x0 build/ARDUINO/PanelComponents.o
 .ARM.extab.text._ZN26GenericHardwareDescription7setDataEP10DataObject
                0x08019f38        0x0 build/ARDUINO/PanelComponents.o
 .ARM.extab.text._ZN15KnobParentClass7freshenEt
                0x08019f38        0x0 build/ARDUINO/PanelComponents.o
 .ARM.extab.text._ZN16Complex10BitKnobC2Ev
                0x08019f38        0x0 build/ARDUINO/PanelComponents.o
 .ARM.extab     0x08019f38       0xa0 build/ARDUINO/PanelComponents.o
 .ARM.extab.text._ZN14CircularBufferItEC2Eh
                0x08019fd8        0xc build/ARDUINO/PanelComponents.o
 .ARM.extab.text._ZN14CircularBufferItE5writeEt
                0x08019fe4        0x0 build/ARDUINO/PanelComponents.o
 .ARM.extab.text._ZN14CircularBufferItE4readEh
                0x08019fe4        0x0 build/ARDUINO/PanelComponents.o
 .ARM.extab     0x08019fe4       0x24 build/ARDUINO/PanelDataObjects.o
 .ARM.extab     0x0801a008        0xc build/ARDUINO/interface.o
 .ARM.extab     0x0801a014       0x24 build/ARDUINO/GPIO.o
 .ARM.extab.text._ZN5PrintC2Ev
                0x0801a038        0x0 build/ARDUINO/HardwareSerial.o
 .ARM.extab.text._ZN6StreamC2Ev
                0x0801a038        0x0 build/ARDUINO/HardwareSerial.o
 .ARM.extab     0x0801a038       0x3c build/ARDUINO/HardwareSerial.o
 .ARM.extab.text._ZSt5isinfd
                0x0801a074        0x0 build/ARDUINO/Print.o
 .ARM.extab.text._ZSt5isnand
                0x0801a074        0x0 build/ARDUINO/Print.o
 .ARM.extab.text._ZNK6String6lengthEv
                0x0801a074        0x0 build/ARDUINO/Print.o
 .ARM.extab.text._ZNK6String5c_strEv
                0x0801a074        0x0 build/ARDUINO/Print.o
 .ARM.extab.text._ZN5Print5writeEPKc
                0x0801a074        0xc build/ARDUINO/Print.o
 .ARM.extab.text._ZN5Print5writeEPKcj
                0x0801a080        0xc build/ARDUINO/Print.o
 .ARM.extab     0x0801a08c      0x174 build/ARDUINO/Print.o
 .ARM.extab     0x0801a200       0x18 c:/stm32/gcc-arm-none-eabi/bin/../lib/gcc/arm-none-eabi/7.3.1/thumb/v7e-m/fpv4-sp/hard\libgcc.a(pr-support.o)

.ARM            0x0801a218      0x510
                0x0801a218                __exidx_start = .
 *(.ARM.exidx*)
 .ARM.exidx     0x0801a218        0x8 build/PROJECT/App.o
 .ARM.exidx.text._ZN14HardwareSerial5beginEm
                0x0801a618        0x8 build/PROJECT/sketch.o
 .ARM.exidx.text._ZN14HardwareSerial5writeEj
                0x0801a620        0x8 build/PROJECT/sketch.o
 .ARM.exidx.text._ZN14HardwareSerial5writeEi
                0x0801a628        0x8 build/PROJECT/sketch.o
 .ARM.exidx.text._ZN12BlinkerPanel8getStateEv
                0x0801a630        0x8 build/PROJECT/sketch.o
 .ARM.exidx.text._ZN12SegmentVideoC2Ev
                0x0801a638        0x8 build/PROJECT/sketch.o
 .ARM.exidx     0x0801a220       0x28 build/PROJECT/sketch.o
                                 0x50 (size before relaxing)
 .ARM.exidx.text._ZN4midi13MidiInterfaceI14HardwareSerialNS_15DefaultSettingsEEC2ERS1_
                0x0801a640        0x8 build/PROJECT/sketch.o
 .ARM.exidx.text._ZN4midi13MidiInterfaceI14HardwareSerialNS_15DefaultSettingsEE14setHandleClockEPFvvE
                0x0801a648        0x0 build/PROJECT/sketch.o
                                  0x8 (size before relaxing)
 .ARM.exidx.text._ZN4midi13MidiInterfaceI14HardwareSerialNS_15DefaultSettingsEE14setHandleStartEPFvvE
                0x0801a648        0x0 build/PROJECT/sketch.o
                                  0x8 (size before relaxing)
 .ARM.exidx.text._ZN4midi13MidiInterfaceI14HardwareSerialNS_15DefaultSettingsEE17setHandleContinueEPFvvE
                0x0801a648        0x0 build/PROJECT/sketch.o
                                  0x8 (size before relaxing)
 .ARM.exidx.text._ZN4midi13MidiInterfaceI14HardwareSerialNS_15DefaultSettingsEE13setHandleStopEPFvvE
                0x0801a648        0x0 build/PROJECT/sketch.o
                                  0x8 (size before relaxing)
 .ARM.exidx.text._ZN4midi13MidiInterfaceI14HardwareSerialNS_15DefaultSettingsEE15setHandleNoteOnEPFvhhhE
                0x0801a648        0x0 build/PROJECT/sketch.o
                                  0x8 (size before relaxing)
 .ARM.exidx.text._ZN4midi13MidiInterfaceI14HardwareSerialNS_15DefaultSettingsEE16setHandleNoteOffEPFvhhhE
                0x0801a648        0x0 build/PROJECT/sketch.o
                                  0x8 (size before relaxing)
 .ARM.exidx.text._ZN4midi13MidiInterfaceI14HardwareSerialNS_15DefaultSettingsEE5beginEh
                0x0801a648        0x8 build/PROJECT/sketch.o
 .ARM.exidx.text._ZN4midi13MidiInterfaceI14HardwareSerialNS_15DefaultSettingsEE4readEv
                0x0801a650        0x8 build/PROJECT/sketch.o
 .ARM.exidx.text._ZN4midi7MessageILj128EEC2Ev
                0x0801a658        0x8 build/PROJECT/sketch.o
 .ARM.exidx.text._ZN4midi13MidiInterfaceI14HardwareSerialNS_15DefaultSettingsEE4readEh
                0x0801a660        0x8 build/PROJECT/sketch.o
 .ARM.exidx.text._ZN4midi13MidiInterfaceI14HardwareSerialNS_15DefaultSettingsEE5parseEv
                0x0801a668        0x8 build/PROJECT/sketch.o
 .ARM.exidx.text._ZN4midi13MidiInterfaceI14HardwareSerialNS_15DefaultSettingsEE33handleNullVelocityNoteOnAsNoteOffEv
                0x0801a670        0x8 build/PROJECT/sketch.o
 .ARM.exidx.text._ZN4midi13MidiInterfaceI14HardwareSerialNS_15DefaultSettingsEE11inputFilterEh
                0x0801a678        0x0 build/PROJECT/sketch.o
                                  0x8 (size before relaxing)
 .ARM.exidx.text._ZN4midi13MidiInterfaceI14HardwareSerialNS_15DefaultSettingsEE14launchCallbackEv
                0x0801a678        0x8 build/PROJECT/sketch.o
 .ARM.exidx.text._ZN4midi13MidiInterfaceI14HardwareSerialNS_15DefaultSettingsEE10thruFilterEh
                0x0801a680        0x8 build/PROJECT/sketch.o
 .ARM.exidx.text._ZN4midi13MidiInterfaceI14HardwareSerialNS_15DefaultSettingsEE16isChannelMessageENS_8MidiTypeE
                0x0801a688        0x8 build/PROJECT/sketch.o
 .ARM.exidx.text._ZN4midi13MidiInterfaceI14HardwareSerialNS_15DefaultSettingsEE21getTypeFromStatusByteEh
                0x0801a690        0x0 build/PROJECT/sketch.o
                                  0x8 (size before relaxing)
 .ARM.exidx.text._ZN4midi13MidiInterfaceI14HardwareSerialNS_15DefaultSettingsEE10resetInputEv
                0x0801a690        0x0 build/PROJECT/sketch.o
                                  0x8 (size before relaxing)
 .ARM.exidx.text._ZN4midi13MidiInterfaceI14HardwareSerialNS_15DefaultSettingsEE24getChannelFromStatusByteEh
                0x0801a690        0x0 build/PROJECT/sketch.o
                                  0x8 (size before relaxing)
 .ARM.exidx.text._ZNK4midi13MidiInterfaceI14HardwareSerialNS_15DefaultSettingsEE7getTypeEv
                0x0801a690        0x0 build/PROJECT/sketch.o
                                  0x8 (size before relaxing)
 .ARM.exidx.text._ZNK4midi13MidiInterfaceI14HardwareSerialNS_15DefaultSettingsEE8getData2Ev
                0x0801a690        0x0 build/PROJECT/sketch.o
                                  0x8 (size before relaxing)
 .ARM.exidx.text._ZNK4midi7MessageILj128EE12getSysExSizeEv
                0x0801a690        0x0 build/PROJECT/sketch.o
                                  0x8 (size before relaxing)
 .ARM.exidx.text._ZN4midi13MidiInterfaceI14HardwareSerialNS_15DefaultSettingsEE4sendENS_8MidiTypeEhhh
                0x0801a690        0x8 build/PROJECT/sketch.o
 .ARM.exidx.text._ZN4midi13MidiInterfaceI14HardwareSerialNS_15DefaultSettingsEE12sendRealTimeENS_8MidiTypeE
                0x0801a698        0x8 build/PROJECT/sketch.o
 .ARM.exidx.text._ZN4midi13MidiInterfaceI14HardwareSerialNS_15DefaultSettingsEE9sendSysExEjPKhb
                0x0801a6a0        0x8 build/PROJECT/sketch.o
 .ARM.exidx.text._ZNK4midi13MidiInterfaceI14HardwareSerialNS_15DefaultSettingsEE19getSysExArrayLengthEv
                0x0801a6a8        0x8 build/PROJECT/sketch.o
 .ARM.exidx.text._ZNK4midi13MidiInterfaceI14HardwareSerialNS_15DefaultSettingsEE13getSysExArrayEv
                0x0801a6b0        0x0 build/PROJECT/sketch.o
                                  0x8 (size before relaxing)
 .ARM.exidx.text._ZN4midi13MidiInterfaceI14HardwareSerialNS_15DefaultSettingsEE14sendSongSelectEh
                0x0801a6b0        0x8 build/PROJECT/sketch.o
 .ARM.exidx.text._ZN4midi13MidiInterfaceI14HardwareSerialNS_15DefaultSettingsEE16sendSongPositionEj
                0x0801a6b8        0x8 build/PROJECT/sketch.o
 .ARM.exidx.text._ZN4midi13MidiInterfaceI14HardwareSerialNS_15DefaultSettingsEE24sendTimeCodeQuarterFrameEhh
                0x0801a6c0        0x8 build/PROJECT/sketch.o
 .ARM.exidx.text._ZNK4midi13MidiInterfaceI14HardwareSerialNS_15DefaultSettingsEE9getStatusENS_8MidiTypeEh
                0x0801a6c8        0x8 build/PROJECT/sketch.o
 .ARM.exidx.text._ZN4midi13MidiInterfaceI14HardwareSerialNS_15DefaultSettingsEE24sendTimeCodeQuarterFrameEh
                0x0801a6d0        0x8 build/PROJECT/sketch.o
 .ARM.exidx.text._ZN4midi13MidiInterfaceI14HardwareSerialNS_15DefaultSettingsEED2Ev
                0x0801a6d8        0x8 build/PROJECT/sketch.o
 .ARM.exidx     0x0801a248       0x48 build/PROJECT/midiTime.o
                                 0x70 (size before relaxing)
 .ARM.exidx.text._ZN14PanelComponentC2Ev
                0x0801a6e0        0x0 build/PROJECT/BlinkerPanel.o
                                  0x8 (size before relaxing)
 .ARM.exidx.text._ZN14PanelComponent12hasFreshDataEv
                0x0801a6e0        0x0 build/PROJECT/BlinkerPanel.o
                                  0x8 (size before relaxing)
 .ARM.exidx.text._ZN14PanelComponent7freshenEt
                0x0801a6e0        0x0 build/PROJECT/BlinkerPanel.o
                                  0x8 (size before relaxing)
 .ARM.exidx.text._ZN3LedC2Ev
                0x0801a6e0        0x0 build/PROJECT/BlinkerPanel.o
                                  0x8 (size before relaxing)
 .ARM.exidx.text._ZN6ButtonC2Ev
                0x0801a6e0        0x8 build/PROJECT/BlinkerPanel.o
 .ARM.exidx     0x0801a290       0x28 build/PROJECT/BlinkerPanel.o
 .ARM.exidx     0x0801a2b8       0x20 build/PROJECT/StatusPanel.o
 .ARM.exidx     0x0801a2d8       0x10 build/PROJECT/SegmentVideo.o
                                 0x58 (size before relaxing)
 .ARM.exidx     0x0801a2e8        0x8 build/ARDUINO/flagMessaging.o
                                 0x30 (size before relaxing)
 .ARM.exidx.text._ZN26GenericHardwareDescription12readHardwareEv
                0x0801a6e8        0x8 build/ARDUINO/HardwareInterfaces.o
 .ARM.exidx.text._ZN26GenericHardwareDescription13writeHardwareEv
                0x0801a6f0        0x0 build/ARDUINO/HardwareInterfaces.o
                                  0x8 (size before relaxing)
 .ARM.exidx.text._ZN26GenericHardwareDescriptionC2Ev
                0x0801a6f0        0x8 build/ARDUINO/HardwareInterfaces.o
 .ARM.exidx     0x0801a2f0       0x30 build/ARDUINO/HardwareInterfaces.o
 .ARM.exidx.text._ZN10ListObjectC2Ev
                0x0801a6f8        0x8 build/ARDUINO/Panel.o
 .ARM.exidx     0x0801a320       0x20 build/ARDUINO/Panel.o
 .ARM.exidx.text._ZN26GenericHardwareDescription7getDataEP10DataObject
                0x0801a700        0x0 build/ARDUINO/PanelComponents.o
                                  0x8 (size before relaxing)
 .ARM.exidx.text._ZN26GenericHardwareDescription7setDataEP10DataObject
                0x0801a700        0x0 build/ARDUINO/PanelComponents.o
                                  0x8 (size before relaxing)
 .ARM.exidx.text._ZN15KnobParentClass7freshenEt
                0x0801a700        0x0 build/ARDUINO/PanelComponents.o
                                  0x8 (size before relaxing)
 .ARM.exidx.text._ZN16Complex10BitKnobC2Ev
                0x0801a700        0x0 build/ARDUINO/PanelComponents.o
                                  0x8 (size before relaxing)
 .ARM.exidx     0x0801a340       0x90 build/ARDUINO/PanelComponents.o
                                0x178 (size before relaxing)
 .ARM.exidx.text._ZN14CircularBufferItEC2Eh
                0x0801a700        0x8 build/ARDUINO/PanelComponents.o
 .ARM.exidx.text._ZN14CircularBufferItE5writeEt
                0x0801a708        0x8 build/ARDUINO/PanelComponents.o
 .ARM.exidx.text._ZN14CircularBufferItE4readEh
                0x0801a710        0x0 build/ARDUINO/PanelComponents.o
                                  0x8 (size before relaxing)
 .ARM.exidx     0x0801a3d0       0x30 build/ARDUINO/PanelDataObjects.o
                                 0x40 (size before relaxing)
 .ARM.exidx     0x0801a400        0x0 build/ARDUINO/timeKeeper.o
                                 0x20 (size before relaxing)
 .ARM.exidx     0x0801a400        0x0 build/ARDUINO/timeKeeper32.o
                                 0x20 (size before relaxing)
 .ARM.exidx     0x0801a400        0x0 build/ARDUINO/timerModule32.o
                                 0x20 (size before relaxing)
 .ARM.exidx     0x0801a400       0x18 build/ARDUINO/interface.o
                                 0x20 (size before relaxing)
 .ARM.exidx     0x0801a418        0x0 build/ARDUINO/abi.o
                                 0x10 (size before relaxing)
 .ARM.exidx     0x0801a418       0x20 build/ARDUINO/GPIO.o
 .ARM.exidx     0x0801a438        0x0 build/ARDUINO/ADC.o
                                  0x8 (size before relaxing)
 .ARM.exidx.text._ZN5PrintC2Ev
                0x0801a710        0x0 build/ARDUINO/HardwareSerial.o
                                  0x8 (size before relaxing)
 .ARM.exidx.text._ZN6StreamC2Ev
                0x0801a710        0x0 build/ARDUINO/HardwareSerial.o
                                  0x8 (size before relaxing)
 .ARM.exidx     0x0801a438       0x30 build/ARDUINO/HardwareSerial.o
                                 0x50 (size before relaxing)
 .ARM.exidx.text._ZSt5isinfd
                0x0801a710        0x0 build/ARDUINO/Print.o
                                  0x8 (size before relaxing)
 .ARM.exidx.text._ZSt5isnand
                0x0801a710        0x0 build/ARDUINO/Print.o
                                  0x8 (size before relaxing)
 .ARM.exidx.text._ZNK6String6lengthEv
                0x0801a710        0x0 build/ARDUINO/Print.o
                                  0x8 (size before relaxing)
 .ARM.exidx.text._ZNK6String5c_strEv
                0x0801a710        0x0 build/ARDUINO/Print.o
                                  0x8 (size before relaxing)
 .ARM.exidx.text._ZN5Print5writeEPKc
                0x0801a710        0x8 build/ARDUINO/Print.o
 .ARM.exidx.text._ZN5Print5writeEPKcj
                0x0801a718       0x10 build/ARDUINO/Print.o
                                  0x8 (size before relaxing)
 .ARM.exidx     0x0801a468      0x100 build/ARDUINO/Print.o
                                 0xf8 (size before relaxing)
 .ARM.exidx     0x0801a568        0x0 c:/stm32/gcc-arm-none-eabi/bin/../lib/gcc/arm-none-eabi/7.3.1/thumb/v7e-m/fpv4-sp/hard\libgcc.a(_udivmoddi4.o)
                                  0x8 (size before relaxing)
 .ARM.exidx     0x0801a568       0x78 c:/stm32/gcc-arm-none-eabi/bin/../lib/gcc/arm-none-eabi/7.3.1/thumb/v7e-m/fpv4-sp/hard\libgcc.a(unwind-arm.o)
                                 0xd8 (size before relaxing)
 .ARM.exidx     0x0801a5e0       0x38 c:/stm32/gcc-arm-none-eabi/bin/../lib/gcc/arm-none-eabi/7.3.1/thumb/v7e-m/fpv4-sp/hard\libgcc.a(pr-support.o)
                                 0x48 (size before relaxing)
                0x0801a728                __exidx_end = .

.rel.dyn        0x0801a728        0x0
 .rel.iplt      0x0801a728        0x0 c:/stm32/gcc-arm-none-eabi/bin/../lib/gcc/arm-none-eabi/7.3.1/thumb/v7e-m/fpv4-sp/hard/crtbegin.o

.preinit_array  0x0801a728        0x0
                0x0801a728                PROVIDE (__preinit_array_start = .)
 *(.preinit_array*)
                0x0801a728                PROVIDE (__preinit_array_end = .)

.init_array     0x0801a728        0xc
                0x0801a728                PROVIDE (__init_array_start = .)
 *(SORT_BY_NAME(.init_array.*))
 *(.init_array*)
 .init_array    0x0801a728        0x4 c:/stm32/gcc-arm-none-eabi/bin/../lib/gcc/arm-none-eabi/7.3.1/thumb/v7e-m/fpv4-sp/hard/crtbegin.o
 .init_array    0x0801a72c        0x4 build/PROJECT/sketch.o
 .init_array    0x0801a730        0x4 build/ARDUINO/interface.o
                0x0801a734                PROVIDE (__init_array_end = .)

.fini_array     0x0801a734        0x4
                [!provide]                PROVIDE (__fini_array_start = .)
 *(SORT_BY_NAME(.fini_array.*))
 *(.fini_array*)
 .fini_array    0x0801a734        0x4 c:/stm32/gcc-arm-none-eabi/bin/../lib/gcc/arm-none-eabi/7.3.1/thumb/v7e-m/fpv4-sp/hard/crtbegin.o
                [!provide]                PROVIDE (__fini_array_end = .)
                0x0801a738                _sidata = LOADADDR (.data)

.data           0x20000000       0x9c load address 0x0801a738
                0x20000000                . = ALIGN (0x4)
                0x20000000                _sdata = .
 *(.data)
 .data          0x20000000        0x4 c:/stm32/gcc-arm-none-eabi/bin/../lib/gcc/arm-none-eabi/7.3.1/thumb/v7e-m/fpv4-sp/hard/crtbegin.o
                0x20000000                __dso_handle
 .data          0x20000004        0xc build/PROJECT/SegmentVideo.o
 .data          0x20000010        0x6 build/ARDUINO/PanelComponents.o
                0x20000010                PanelComponent::flasherCounterMax
                0x20000012                PanelComponent::fastFlasherCounterMax
                0x20000014                PanelComponent::flasherState
                0x20000015                PanelComponent::fastFlasherState
 *fill*         0x20000016        0x2 
 .data          0x20000018        0xc build/HAL/tim.o
                0x20000018                usTicksLocked
                0x2000001c                maxTimer
                0x20000020                maxInterval
 .data          0x20000024        0x5 build/HAL/stm32f4xx_hal.o
                0x20000024                uwTickPrio
                0x20000028                uwTickFreq
 *fill*         0x20000029        0x3 
 .data          0x2000002c        0x4 build/HAL/system_stm32f4xx.o
                0x2000002c                SystemCoreClock
 *(.data*)
 .data._ZN10__cxxabiv119__terminate_handlerE
                0x20000030        0x4 c:/stm32/gcc-arm-none-eabi/bin/../lib/gcc/arm-none-eabi/7.3.1/../../../../arm-none-eabi/lib/thumb/v7e-m/fpv4-sp/hard\libstdc++_nano.a(eh_term_handler.o)
                0x20000030                __cxxabiv1::__terminate_handler
 .data._ZN10__cxxabiv120__unexpected_handlerE
                0x20000034        0x4 c:/stm32/gcc-arm-none-eabi/bin/../lib/gcc/arm-none-eabi/7.3.1/../../../../arm-none-eabi/lib/thumb/v7e-m/fpv4-sp/hard\libstdc++_nano.a(eh_unex_handler.o)
                0x20000034                __cxxabiv1::__unexpected_handler
 .data._impure_ptr
                0x20000038        0x4 c:/stm32/gcc-arm-none-eabi/bin/../lib/gcc/arm-none-eabi/7.3.1/../../../../arm-none-eabi/lib/thumb/v7e-m/fpv4-sp/hard\libc_nano.a(lib_a-impure.o)
                0x20000038                _impure_ptr
 .data.impure_data
                0x2000003c       0x60 c:/stm32/gcc-arm-none-eabi/bin/../lib/gcc/arm-none-eabi/7.3.1/../../../../arm-none-eabi/lib/thumb/v7e-m/fpv4-sp/hard\libc_nano.a(lib_a-impure.o)
                0x2000009c                . = ALIGN (0x4)
                0x2000009c                _edata = .

.igot.plt       0x2000009c        0x0 load address 0x0801a7d4
 .igot.plt      0x2000009c        0x0 c:/stm32/gcc-arm-none-eabi/bin/../lib/gcc/arm-none-eabi/7.3.1/thumb/v7e-m/fpv4-sp/hard/crtbegin.o
                0x2000009c                . = ALIGN (0x4)

.bss            0x2000009c     0x11d8 load address 0x0801a7d4
                0x2000009c                _sbss = .
                0x2000009c                __bss_start__ = _sbss
 *(.bss)
 .bss           0x2000009c       0x1c c:/stm32/gcc-arm-none-eabi/bin/../lib/gcc/arm-none-eabi/7.3.1/thumb/v7e-m/fpv4-sp/hard/crtbegin.o
 .bss           0x200000b8      0x858 build/PROJECT/sketch.o
                0x200000b8                Segments
                0x200005f4                extMidiClock
                0x20000608                intMidiClock
                0x2000061c                clockSocket
                0x20000624                MIDI
                0x20000710                mainPanel
                0x200008b0                statusPanel
                0x200008dc                debugCounter
                0x200008e0                debugTimer
                0x200008ec                mainPanelTimer
                0x200008f8                statusPanelTimer
                0x20000904                segmentVideoTimer
 .bss           0x20000910        0x4 build/ARDUINO/PanelComponents.o
                0x20000910                PanelComponent::flasherCounter
                0x20000912                PanelComponent::fastFlasherCounter
 .bss           0x20000914       0x30 build/ARDUINO/interface.o
                0x20000914                Serial2
                0x2000092c                Serial6
 .bss           0x20000944        0xb build/HAL/display_clock.o
 *fill*         0x2000094f        0x1 
 .bss           0x20000950        0x4 build/HAL/tim.o
                0x20000950                usTicks
 *(.bss*)
 .bss._ZN12_GLOBAL__N_113__new_handlerE
                0x20000954        0x4 c:/stm32/gcc-arm-none-eabi/bin/../lib/gcc/arm-none-eabi/7.3.1/../../../../arm-none-eabi/lib/thumb/v7e-m/fpv4-sp/hard\libstdc++_nano.a(new_handler.o)
 .bss._ZL10eh_globals
                0x20000958        0xc c:/stm32/gcc-arm-none-eabi/bin/../lib/gcc/arm-none-eabi/7.3.1/../../../../arm-none-eabi/lib/thumb/v7e-m/fpv4-sp/hard\libstdc++_nano.a(eh_globals.o)
 .bss.__malloc_free_list
                0x20000964        0x4 c:/stm32/gcc-arm-none-eabi/bin/../lib/gcc/arm-none-eabi/7.3.1/../../../../arm-none-eabi/lib/thumb/v7e-m/fpv4-sp/hard\libc_nano.a(lib_a-nano-mallocr.o)
                0x20000964                __malloc_free_list
 .bss.__malloc_sbrk_start
                0x20000968        0x4 c:/stm32/gcc-arm-none-eabi/bin/../lib/gcc/arm-none-eabi/7.3.1/../../../../arm-none-eabi/lib/thumb/v7e-m/fpv4-sp/hard\libc_nano.a(lib_a-nano-mallocr.o)
                0x20000968                __malloc_sbrk_start
 .bss.heap_end.5377
                0x2000096c        0x4 c:/stm32/gcc-arm-none-eabi/bin/../lib/gcc/arm-none-eabi/7.3.1/../../../../arm-none-eabi/lib/thumb/v7e-m/fpv4-sp/hard\libnosys.a(sbrk.o)
 *(COMMON)
 COMMON         0x20000970        0x4 build/HAL/main.o
                0x20000970                SYSTICK_VALUE
 COMMON         0x20000974       0x48 build/HAL/adc.o
                0x20000974                hadc1
 COMMON         0x200009bc       0x14 build/HAL/adc_ext.o
                0x200009bc                adcValues
 COMMON         0x200009d0       0xb8 build/HAL/spi.o
                0x200009d0                hspi1
                0x20000a28                hdma_spi1_tx
 COMMON         0x20000a88       0x3c build/HAL/tim.o
                0x20000a88                htim2
 COMMON         0x20000ac4      0x7a4 build/HAL/usart.o
                0x20000ac4                hdma_usart6_tx
                0x20000b24                VCP_UART
                0x20000d54                hdma_usart2_tx
                0x20000db4                D01_UART
                0x20000fe4                huart6
                0x20001024                huart2
                0x20001064                usrUartDB
 COMMON         0x20001268        0x4 build/HAL/unused_int.o
                0x20001268                debug_var
 COMMON         0x2000126c        0x4 build/HAL/stm32f4xx_hal.o
                0x2000126c                uwTick
 COMMON         0x20001270        0x4 c:/stm32/gcc-arm-none-eabi/bin/../lib/gcc/arm-none-eabi/7.3.1/../../../../arm-none-eabi/lib/thumb/v7e-m/fpv4-sp/hard\libc_nano.a(lib_a-reent.o)
                0x20001270                errno
                0x20001274                . = ALIGN (0x4)
                0x20001274                _ebss = .
                0x20001274                __bss_end__ = _ebss

._user_heap_stack
                0x20001274      0x604 load address 0x0801a7d4
                0x20001278                . = ALIGN (0x8)
 *fill*         0x20001274        0x4 
                0x20001278                PROVIDE (end = .)
                [!provide]                PROVIDE (_end = .)
                0x20001478                . = (. + _Min_Heap_Size)
 *fill*         0x20001278      0x200 
                0x20001878                . = (. + _Min_Stack_Size)
 *fill*         0x20001478      0x400 
                0x20001878                . = ALIGN (0x8)

/DISCARD/
 libc.a(*)
 libm.a(*)
 libgcc.a(*)

.ARM.attributes
                0x00000000       0x30
 *(.ARM.attributes)
 .ARM.attributes
                0x00000000       0x22 c:/stm32/gcc-arm-none-eabi/bin/../lib/gcc/arm-none-eabi/7.3.1/thumb/v7e-m/fpv4-sp/hard/crti.o
 .ARM.attributes
                0x00000022       0x34 c:/stm32/gcc-arm-none-eabi/bin/../lib/gcc/arm-none-eabi/7.3.1/thumb/v7e-m/fpv4-sp/hard/crtbegin.o
 .ARM.attributes
                0x00000056       0x39 build/PROJECT/App.o
 .ARM.attributes
                0x0000008f       0x39 build/PROJECT/sketch.o
 .ARM.attributes
                0x000000c8       0x39 build/PROJECT/midiTime.o
 .ARM.attributes
                0x00000101       0x39 build/PROJECT/BlinkerPanel.o
 .ARM.attributes
                0x0000013a       0x39 build/PROJECT/StatusPanel.o
 .ARM.attributes
                0x00000173       0x39 build/PROJECT/SegmentVideo.o
 .ARM.attributes
                0x000001ac       0x39 build/ARDUINO/flagMessaging.o
 .ARM.attributes
                0x000001e5       0x39 build/ARDUINO/HardwareInterfaces.o
 .ARM.attributes
                0x0000021e       0x39 build/ARDUINO/Panel.o
 .ARM.attributes
                0x00000257       0x39 build/ARDUINO/PanelComponents.o
 .ARM.attributes
                0x00000290       0x39 build/ARDUINO/PanelDataObjects.o
 .ARM.attributes
                0x000002c9       0x39 build/ARDUINO/timeKeeper.o
 .ARM.attributes
                0x00000302       0x39 build/ARDUINO/timeKeeper32.o
 .ARM.attributes
                0x0000033b       0x39 build/ARDUINO/timerModule32.o
 .ARM.attributes
                0x00000374       0x39 build/ARDUINO/interface.o
 .ARM.attributes
                0x000003ad       0x39 build/ARDUINO/abi.o
 .ARM.attributes
                0x000003e6       0x39 build/ARDUINO/GPIO.o
 .ARM.attributes
                0x0000041f       0x39 build/ARDUINO/ADC.o
 .ARM.attributes
                0x00000458       0x39 build/ARDUINO/HardwareSerial.o
 .ARM.attributes
                0x00000491       0x39 build/ARDUINO/Print.o
 .ARM.attributes
                0x000004ca       0x39 build/HAL/main.o
 .ARM.attributes
                0x00000503       0x39 build/HAL/gpio.o
 .ARM.attributes
                0x0000053c       0x39 build/HAL/adc.o
 .ARM.attributes
                0x00000575       0x39 build/HAL/adc_ext.o
 .ARM.attributes
                0x000005ae       0x39 build/HAL/debugPins.o
 .ARM.attributes
                0x000005e7       0x39 build/HAL/display_clock.o
 .ARM.attributes
                0x00000620       0x39 build/HAL/dma.o
 .ARM.attributes
                0x00000659       0x39 build/HAL/spi.o
 .ARM.attributes
                0x00000692       0x39 build/HAL/tim.o
 .ARM.attributes
                0x000006cb       0x39 build/HAL/usart.o
 .ARM.attributes
                0x00000704       0x39 build/HAL/stm32f4xx_it.o
 .ARM.attributes
                0x0000073d       0x39 build/HAL/stm32f4xx_hal_msp.o
 .ARM.attributes
                0x00000776       0x39 build/HAL/unused_int.o
 .ARM.attributes
                0x000007af       0x39 build/HAL/stm32f4xx_hal_adc.o
 .ARM.attributes
                0x000007e8       0x39 build/HAL/stm32f4xx_hal_adc_ex.o
 .ARM.attributes
                0x00000821       0x39 build/HAL/stm32f4xx_hal_spi.o
 .ARM.attributes
                0x0000085a       0x39 build/HAL/stm32f4xx_hal_tim.o
 .ARM.attributes
                0x00000893       0x39 build/HAL/stm32f4xx_hal_tim_ex.o
 .ARM.attributes
                0x000008cc       0x39 build/HAL/stm32f4xx_hal_uart.o
 .ARM.attributes
                0x00000905       0x39 build/HAL/stm32f4xx_hal_rcc.o
 .ARM.attributes
                0x0000093e       0x39 build/HAL/stm32f4xx_hal_rcc_ex.o
 .ARM.attributes
                0x00000977       0x39 build/HAL/stm32f4xx_hal_gpio.o
 .ARM.attributes
                0x000009b0       0x39 build/HAL/stm32f4xx_hal_dma.o
 .ARM.attributes
                0x000009e9       0x39 build/HAL/stm32f4xx_hal_pwr_ex.o
 .ARM.attributes
                0x00000a22       0x39 build/HAL/stm32f4xx_hal_cortex.o
 .ARM.attributes
                0x00000a5b       0x39 build/HAL/stm32f4xx_hal.o
 .ARM.attributes
                0x00000a94       0x39 build/HAL/system_stm32f4xx.o
 .ARM.attributes
                0x00000acd       0x21 build/HAL/startup_stm32f446xx.o
 .ARM.attributes
                0x00000aee       0x34 c:/stm32/gcc-arm-none-eabi/bin/../lib/gcc/arm-none-eabi/7.3.1/../../../../arm-none-eabi/lib/thumb/v7e-m/fpv4-sp/hard\libstdc++_nano.a(new_op.o)
 .ARM.attributes
                0x00000b22       0x34 c:/stm32/gcc-arm-none-eabi/bin/../lib/gcc/arm-none-eabi/7.3.1/../../../../arm-none-eabi/lib/thumb/v7e-m/fpv4-sp/hard\libstdc++_nano.a(del_op.o)
 .ARM.attributes
                0x00000b56       0x34 c:/stm32/gcc-arm-none-eabi/bin/../lib/gcc/arm-none-eabi/7.3.1/../../../../arm-none-eabi/lib/thumb/v7e-m/fpv4-sp/hard\libstdc++_nano.a(eh_call.o)
 .ARM.attributes
                0x00000b8a       0x34 c:/stm32/gcc-arm-none-eabi/bin/../lib/gcc/arm-none-eabi/7.3.1/../../../../arm-none-eabi/lib/thumb/v7e-m/fpv4-sp/hard\libstdc++_nano.a(eh_aux_runtime.o)
 .ARM.attributes
                0x00000bbe       0x34 c:/stm32/gcc-arm-none-eabi/bin/../lib/gcc/arm-none-eabi/7.3.1/../../../../arm-none-eabi/lib/thumb/v7e-m/fpv4-sp/hard\libstdc++_nano.a(del_opv.o)
 .ARM.attributes
                0x00000bf2       0x34 c:/stm32/gcc-arm-none-eabi/bin/../lib/gcc/arm-none-eabi/7.3.1/../../../../arm-none-eabi/lib/thumb/v7e-m/fpv4-sp/hard\libstdc++_nano.a(new_handler.o)
 .ARM.attributes
                0x00000c26       0x34 c:/stm32/gcc-arm-none-eabi/bin/../lib/gcc/arm-none-eabi/7.3.1/../../../../arm-none-eabi/lib/thumb/v7e-m/fpv4-sp/hard\libstdc++_nano.a(eh_catch.o)
 .ARM.attributes
                0x00000c5a       0x34 c:/stm32/gcc-arm-none-eabi/bin/../lib/gcc/arm-none-eabi/7.3.1/../../../../arm-none-eabi/lib/thumb/v7e-m/fpv4-sp/hard\libstdc++_nano.a(eh_globals.o)
 .ARM.attributes
                0x00000c8e       0x34 c:/stm32/gcc-arm-none-eabi/bin/../lib/gcc/arm-none-eabi/7.3.1/../../../../arm-none-eabi/lib/thumb/v7e-m/fpv4-sp/hard\libstdc++_nano.a(eh_terminate.o)
 .ARM.attributes
                0x00000cc2       0x34 c:/stm32/gcc-arm-none-eabi/bin/../lib/gcc/arm-none-eabi/7.3.1/../../../../arm-none-eabi/lib/thumb/v7e-m/fpv4-sp/hard\libstdc++_nano.a(eh_arm.o)
 .ARM.attributes
                0x00000cf6       0x34 c:/stm32/gcc-arm-none-eabi/bin/../lib/gcc/arm-none-eabi/7.3.1/../../../../arm-none-eabi/lib/thumb/v7e-m/fpv4-sp/hard\libstdc++_nano.a(atexit_arm.o)
 .ARM.attributes
                0x00000d2a       0x34 c:/stm32/gcc-arm-none-eabi/bin/../lib/gcc/arm-none-eabi/7.3.1/../../../../arm-none-eabi/lib/thumb/v7e-m/fpv4-sp/hard\libstdc++_nano.a(new_opv.o)
 .ARM.attributes
                0x00000d5e       0x34 c:/stm32/gcc-arm-none-eabi/bin/../lib/gcc/arm-none-eabi/7.3.1/../../../../arm-none-eabi/lib/thumb/v7e-m/fpv4-sp/hard\libstdc++_nano.a(eh_exception.o)
 .ARM.attributes
                0x00000d92       0x34 c:/stm32/gcc-arm-none-eabi/bin/../lib/gcc/arm-none-eabi/7.3.1/../../../../arm-none-eabi/lib/thumb/v7e-m/fpv4-sp/hard\libstdc++_nano.a(eh_term_handler.o)
 .ARM.attributes
                0x00000dc6       0x34 c:/stm32/gcc-arm-none-eabi/bin/../lib/gcc/arm-none-eabi/7.3.1/../../../../arm-none-eabi/lib/thumb/v7e-m/fpv4-sp/hard\libstdc++_nano.a(eh_unex_handler.o)
 .ARM.attributes
                0x00000dfa       0x34 c:/stm32/gcc-arm-none-eabi/bin/../lib/gcc/arm-none-eabi/7.3.1/../../../../arm-none-eabi/lib/thumb/v7e-m/fpv4-sp/hard\libstdc++_nano.a(del_ops.o)
 .ARM.attributes
                0x00000e2e       0x34 c:/stm32/gcc-arm-none-eabi/bin/../lib/gcc/arm-none-eabi/7.3.1/../../../../arm-none-eabi/lib/thumb/v7e-m/fpv4-sp/hard\libstdc++_nano.a(si_class_type_info.o)
 .ARM.attributes
                0x00000e62       0x34 c:/stm32/gcc-arm-none-eabi/bin/../lib/gcc/arm-none-eabi/7.3.1/../../../../arm-none-eabi/lib/thumb/v7e-m/fpv4-sp/hard\libstdc++_nano.a(tinfo.o)
 .ARM.attributes
                0x00000e96       0x34 c:/stm32/gcc-arm-none-eabi/bin/../lib/gcc/arm-none-eabi/7.3.1/../../../../arm-none-eabi/lib/thumb/v7e-m/fpv4-sp/hard\libstdc++_nano.a(class_type_info.o)
 .ARM.attributes
                0x00000eca       0x34 c:/stm32/gcc-arm-none-eabi/bin/../lib/gcc/arm-none-eabi/7.3.1/../../../../arm-none-eabi/lib/thumb/v7e-m/fpv4-sp/hard\libc_nano.a(lib_a-abort.o)
 .ARM.attributes
                0x00000efe       0x34 c:/stm32/gcc-arm-none-eabi/bin/../lib/gcc/arm-none-eabi/7.3.1/../../../../arm-none-eabi/lib/thumb/v7e-m/fpv4-sp/hard\libc_nano.a(lib_a-cxa_atexit.o)
 .ARM.attributes
                0x00000f32       0x34 c:/stm32/gcc-arm-none-eabi/bin/../lib/gcc/arm-none-eabi/7.3.1/../../../../arm-none-eabi/lib/thumb/v7e-m/fpv4-sp/hard\libc_nano.a(lib_a-impure.o)
 .ARM.attributes
                0x00000f66       0x34 c:/stm32/gcc-arm-none-eabi/bin/../lib/gcc/arm-none-eabi/7.3.1/../../../../arm-none-eabi/lib/thumb/v7e-m/fpv4-sp/hard\libc_nano.a(lib_a-init.o)
 .ARM.attributes
                0x00000f9a       0x34 c:/stm32/gcc-arm-none-eabi/bin/../lib/gcc/arm-none-eabi/7.3.1/../../../../arm-none-eabi/lib/thumb/v7e-m/fpv4-sp/hard\libc_nano.a(lib_a-malloc.o)
 .ARM.attributes
                0x00000fce       0x34 c:/stm32/gcc-arm-none-eabi/bin/../lib/gcc/arm-none-eabi/7.3.1/../../../../arm-none-eabi/lib/thumb/v7e-m/fpv4-sp/hard\libc_nano.a(lib_a-memcpy-stub.o)
 .ARM.attributes
                0x00001002       0x34 c:/stm32/gcc-arm-none-eabi/bin/../lib/gcc/arm-none-eabi/7.3.1/../../../../arm-none-eabi/lib/thumb/v7e-m/fpv4-sp/hard\libc_nano.a(lib_a-memmove.o)
 .ARM.attributes
                0x00001036       0x34 c:/stm32/gcc-arm-none-eabi/bin/../lib/gcc/arm-none-eabi/7.3.1/../../../../arm-none-eabi/lib/thumb/v7e-m/fpv4-sp/hard\libc_nano.a(lib_a-memset.o)
 .ARM.attributes
                0x0000106a       0x34 c:/stm32/gcc-arm-none-eabi/bin/../lib/gcc/arm-none-eabi/7.3.1/../../../../arm-none-eabi/lib/thumb/v7e-m/fpv4-sp/hard\libc_nano.a(lib_a-nano-freer.o)
 .ARM.attributes
                0x0000109e       0x34 c:/stm32/gcc-arm-none-eabi/bin/../lib/gcc/arm-none-eabi/7.3.1/../../../../arm-none-eabi/lib/thumb/v7e-m/fpv4-sp/hard\libc_nano.a(lib_a-nano-mallocr.o)
 .ARM.attributes
                0x000010d2       0x34 c:/stm32/gcc-arm-none-eabi/bin/../lib/gcc/arm-none-eabi/7.3.1/../../../../arm-none-eabi/lib/thumb/v7e-m/fpv4-sp/hard\libc_nano.a(lib_a-sbrkr.o)
 .ARM.attributes
                0x00001106       0x34 c:/stm32/gcc-arm-none-eabi/bin/../lib/gcc/arm-none-eabi/7.3.1/../../../../arm-none-eabi/lib/thumb/v7e-m/fpv4-sp/hard\libc_nano.a(lib_a-signal.o)
 .ARM.attributes
                0x0000113a       0x34 c:/stm32/gcc-arm-none-eabi/bin/../lib/gcc/arm-none-eabi/7.3.1/../../../../arm-none-eabi/lib/thumb/v7e-m/fpv4-sp/hard\libc_nano.a(lib_a-signalr.o)
 .ARM.attributes
                0x0000116e       0x34 c:/stm32/gcc-arm-none-eabi/bin/../lib/gcc/arm-none-eabi/7.3.1/../../../../arm-none-eabi/lib/thumb/v7e-m/fpv4-sp/hard\libc_nano.a(lib_a-sprintf.o)
 .ARM.attributes
                0x000011a2       0x20 c:/stm32/gcc-arm-none-eabi/bin/../lib/gcc/arm-none-eabi/7.3.1/../../../../arm-none-eabi/lib/thumb/v7e-m/fpv4-sp/hard\libc_nano.a(lib_a-strcmp.o)
 .ARM.attributes
                0x000011c2       0x1b c:/stm32/gcc-arm-none-eabi/bin/../lib/gcc/arm-none-eabi/7.3.1/../../../../arm-none-eabi/lib/thumb/v7e-m/fpv4-sp/hard\libc_nano.a(lib_a-strlen.o)
 .ARM.attributes
                0x000011dd       0x34 c:/stm32/gcc-arm-none-eabi/bin/../lib/gcc/arm-none-eabi/7.3.1/../../../../arm-none-eabi/lib/thumb/v7e-m/fpv4-sp/hard\libc_nano.a(lib_a-mlock.o)
 .ARM.attributes
                0x00001211       0x34 c:/stm32/gcc-arm-none-eabi/bin/../lib/gcc/arm-none-eabi/7.3.1/../../../../arm-none-eabi/lib/thumb/v7e-m/fpv4-sp/hard\libc_nano.a(lib_a-nano-reallocr.o)
 .ARM.attributes
                0x00001245       0x34 c:/stm32/gcc-arm-none-eabi/bin/../lib/gcc/arm-none-eabi/7.3.1/../../../../arm-none-eabi/lib/thumb/v7e-m/fpv4-sp/hard\libc_nano.a(lib_a-nano-svfprintf.o)
 .ARM.attributes
                0x00001279       0x34 c:/stm32/gcc-arm-none-eabi/bin/../lib/gcc/arm-none-eabi/7.3.1/../../../../arm-none-eabi/lib/thumb/v7e-m/fpv4-sp/hard\libc_nano.a(lib_a-nano-vfprintf_i.o)
 .ARM.attributes
                0x000012ad       0x34 c:/stm32/gcc-arm-none-eabi/bin/../lib/gcc/arm-none-eabi/7.3.1/../../../../arm-none-eabi/lib/thumb/v7e-m/fpv4-sp/hard\libc_nano.a(lib_a-reent.o)
 .ARM.attributes
                0x000012e1       0x20 c:/stm32/gcc-arm-none-eabi/bin/../lib/gcc/arm-none-eabi/7.3.1/../../../../arm-none-eabi/lib/thumb/v7e-m/fpv4-sp/hard\libc_nano.a(lib_a-memchr.o)
 .ARM.attributes
                0x00001301       0x34 c:/stm32/gcc-arm-none-eabi/bin/../lib/gcc/arm-none-eabi/7.3.1/../../../../arm-none-eabi/lib/thumb/v7e-m/fpv4-sp/hard\libc_nano.a(lib_a-nano-msizer.o)
 .ARM.attributes
                0x00001335       0x22 c:/stm32/gcc-arm-none-eabi/bin/../lib/gcc/arm-none-eabi/7.3.1/thumb/v7e-m/fpv4-sp/hard\libgcc.a(_arm_addsubdf3.o)
 .ARM.attributes
                0x00001357       0x22 c:/stm32/gcc-arm-none-eabi/bin/../lib/gcc/arm-none-eabi/7.3.1/thumb/v7e-m/fpv4-sp/hard\libgcc.a(_arm_muldivdf3.o)
 .ARM.attributes
                0x00001379       0x22 c:/stm32/gcc-arm-none-eabi/bin/../lib/gcc/arm-none-eabi/7.3.1/thumb/v7e-m/fpv4-sp/hard\libgcc.a(_arm_cmpdf2.o)
 .ARM.attributes
                0x0000139b       0x22 c:/stm32/gcc-arm-none-eabi/bin/../lib/gcc/arm-none-eabi/7.3.1/thumb/v7e-m/fpv4-sp/hard\libgcc.a(_arm_unorddf2.o)
 .ARM.attributes
                0x000013bd       0x22 c:/stm32/gcc-arm-none-eabi/bin/../lib/gcc/arm-none-eabi/7.3.1/thumb/v7e-m/fpv4-sp/hard\libgcc.a(_arm_fixdfsi.o)
 .ARM.attributes
                0x000013df       0x22 c:/stm32/gcc-arm-none-eabi/bin/../lib/gcc/arm-none-eabi/7.3.1/thumb/v7e-m/fpv4-sp/hard\libgcc.a(_arm_fixunsdfsi.o)
 .ARM.attributes
                0x00001401       0x22 c:/stm32/gcc-arm-none-eabi/bin/../lib/gcc/arm-none-eabi/7.3.1/thumb/v7e-m/fpv4-sp/hard\libgcc.a(_aeabi_uldivmod.o)
 .ARM.attributes
                0x00001423       0x34 c:/stm32/gcc-arm-none-eabi/bin/../lib/gcc/arm-none-eabi/7.3.1/thumb/v7e-m/fpv4-sp/hard\libgcc.a(_udivmoddi4.o)
 .ARM.attributes
                0x00001457       0x34 c:/stm32/gcc-arm-none-eabi/bin/../lib/gcc/arm-none-eabi/7.3.1/thumb/v7e-m/fpv4-sp/hard\libgcc.a(unwind-arm.o)
 .ARM.attributes
                0x0000148b       0x22 c:/stm32/gcc-arm-none-eabi/bin/../lib/gcc/arm-none-eabi/7.3.1/thumb/v7e-m/fpv4-sp/hard\libgcc.a(libunwind.o)
 .ARM.attributes
                0x000014ad       0x34 c:/stm32/gcc-arm-none-eabi/bin/../lib/gcc/arm-none-eabi/7.3.1/thumb/v7e-m/fpv4-sp/hard\libgcc.a(pr-support.o)
 .ARM.attributes
                0x000014e1       0x22 c:/stm32/gcc-arm-none-eabi/bin/../lib/gcc/arm-none-eabi/7.3.1/thumb/v7e-m/fpv4-sp/hard\libgcc.a(_dvmd_tls.o)
 .ARM.attributes
                0x00001503       0x34 c:/stm32/gcc-arm-none-eabi/bin/../lib/gcc/arm-none-eabi/7.3.1/../../../../arm-none-eabi/lib/thumb/v7e-m/fpv4-sp/hard\libnosys.a(getpid.o)
 .ARM.attributes
                0x00001537       0x34 c:/stm32/gcc-arm-none-eabi/bin/../lib/gcc/arm-none-eabi/7.3.1/../../../../arm-none-eabi/lib/thumb/v7e-m/fpv4-sp/hard\libnosys.a(kill.o)
 .ARM.attributes
                0x0000156b       0x34 c:/stm32/gcc-arm-none-eabi/bin/../lib/gcc/arm-none-eabi/7.3.1/../../../../arm-none-eabi/lib/thumb/v7e-m/fpv4-sp/hard\libnosys.a(sbrk.o)
 .ARM.attributes
                0x0000159f       0x34 c:/stm32/gcc-arm-none-eabi/bin/../lib/gcc/arm-none-eabi/7.3.1/../../../../arm-none-eabi/lib/thumb/v7e-m/fpv4-sp/hard\libnosys.a(_exit.o)
 .ARM.attributes
                0x000015d3       0x22 c:/stm32/gcc-arm-none-eabi/bin/../lib/gcc/arm-none-eabi/7.3.1/thumb/v7e-m/fpv4-sp/hard/crtn.o
OUTPUT(build/output.elf elf32-littlearm)

.debug_info     0x00000000    0x41257
 .debug_info    0x00000000     0x1449 build/PROJECT/App.o
 .debug_info    0x00001449     0x3c92 build/PROJECT/sketch.o
 .debug_info    0x000050db     0x203c build/PROJECT/midiTime.o
 .debug_info    0x00007117     0x25ec build/PROJECT/BlinkerPanel.o
 .debug_info    0x00009703     0x21c0 build/PROJECT/StatusPanel.o
 .debug_info    0x0000b8c3     0x1a10 build/PROJECT/SegmentVideo.o
 .debug_info    0x0000d2d3      0x292 build/ARDUINO/flagMessaging.o
 .debug_info    0x0000d565     0x1aae build/ARDUINO/HardwareInterfaces.o
 .debug_info    0x0000f013     0x1976 build/ARDUINO/Panel.o
 .debug_info    0x00010989     0x33f1 build/ARDUINO/PanelComponents.o
 .debug_info    0x00013d7a     0x17e4 build/ARDUINO/PanelDataObjects.o
 .debug_info    0x0001555e      0x1f7 build/ARDUINO/timeKeeper.o
 .debug_info    0x00015755      0x1e1 build/ARDUINO/timeKeeper32.o
 .debug_info    0x00015936      0x274 build/ARDUINO/timerModule32.o
 .debug_info    0x00015baa     0x168a build/ARDUINO/interface.o
 .debug_info    0x00017234      0xe62 build/ARDUINO/abi.o
 .debug_info    0x00018096     0x1709 build/ARDUINO/GPIO.o
 .debug_info    0x0001979f     0x1481 build/ARDUINO/ADC.o
 .debug_info    0x0001ac20     0x2ee8 build/ARDUINO/HardwareSerial.o
 .debug_info    0x0001db08     0x3afb build/ARDUINO/Print.o
 .debug_info    0x00021603     0x1b1d build/HAL/main.o
 .debug_info    0x00023120      0xce4 build/HAL/gpio.o
 .debug_info    0x00023e04     0x13f9 build/HAL/adc.o
 .debug_info    0x000251fd      0xdf5 build/HAL/adc_ext.o
 .debug_info    0x00025ff2      0xaa7 build/HAL/debugPins.o
 .debug_info    0x00026a99      0xf58 build/HAL/display_clock.o
 .debug_info    0x000279f1      0xda4 build/HAL/dma.o
 .debug_info    0x00028795     0x13e6 build/HAL/spi.o
 .debug_info    0x00029b7b     0x13e9 build/HAL/tim.o
 .debug_info    0x0002af64     0x1781 build/HAL/usart.o
 .debug_info    0x0002c6e5     0x15df build/HAL/stm32f4xx_it.o
 .debug_info    0x0002dcc4      0xda4 build/HAL/stm32f4xx_hal_msp.o
 .debug_info    0x0002ea68      0x75c build/HAL/unused_int.o
 .debug_info    0x0002f1c4     0x14ad build/HAL/stm32f4xx_hal_adc.o
 .debug_info    0x00030671     0x132b build/HAL/stm32f4xx_hal_adc_ex.o
 .debug_info    0x0003199c     0x1d07 build/HAL/stm32f4xx_hal_spi.o
 .debug_info    0x000336a3     0x2a07 build/HAL/stm32f4xx_hal_tim.o
 .debug_info    0x000360aa     0x17e1 build/HAL/stm32f4xx_hal_tim_ex.o
 .debug_info    0x0003788b     0x19eb build/HAL/stm32f4xx_hal_uart.o
 .debug_info    0x00039276     0x1102 build/HAL/stm32f4xx_hal_rcc.o
 .debug_info    0x0003a378     0x11a1 build/HAL/stm32f4xx_hal_rcc_ex.o
 .debug_info    0x0003b519      0xfd0 build/HAL/stm32f4xx_hal_gpio.o
 .debug_info    0x0003c4e9     0x1132 build/HAL/stm32f4xx_hal_dma.o
 .debug_info    0x0003d61b      0xf67 build/HAL/stm32f4xx_hal_pwr_ex.o
 .debug_info    0x0003e582     0x160b build/HAL/stm32f4xx_hal_cortex.o
 .debug_info    0x0003fb8d     0x117d build/HAL/stm32f4xx_hal.o
 .debug_info    0x00040d0a      0x52b build/HAL/system_stm32f4xx.o
 .debug_info    0x00041235       0x22 build/HAL/startup_stm32f446xx.o

.debug_abbrev   0x00000000     0x8dbe
 .debug_abbrev  0x00000000      0x2f2 build/PROJECT/App.o
 .debug_abbrev  0x000002f2      0x6fa build/PROJECT/sketch.o
 .debug_abbrev  0x000009ec      0x4d7 build/PROJECT/midiTime.o
 .debug_abbrev  0x00000ec3      0x58c build/PROJECT/BlinkerPanel.o
 .debug_abbrev  0x0000144f      0x52f build/PROJECT/StatusPanel.o
 .debug_abbrev  0x0000197e      0x441 build/PROJECT/SegmentVideo.o
 .debug_abbrev  0x00001dbf      0x126 build/ARDUINO/flagMessaging.o
 .debug_abbrev  0x00001ee5      0x46a build/ARDUINO/HardwareInterfaces.o
 .debug_abbrev  0x0000234f      0x4bb build/ARDUINO/Panel.o
 .debug_abbrev  0x0000280a      0x5fe build/ARDUINO/PanelComponents.o
 .debug_abbrev  0x00002e08      0x3cc build/ARDUINO/PanelDataObjects.o
 .debug_abbrev  0x000031d4      0x12b build/ARDUINO/timeKeeper.o
 .debug_abbrev  0x000032ff      0x12b build/ARDUINO/timeKeeper32.o
 .debug_abbrev  0x0000342a      0x158 build/ARDUINO/timerModule32.o
 .debug_abbrev  0x00003582      0x36f build/ARDUINO/interface.o
 .debug_abbrev  0x000038f1      0x25e build/ARDUINO/abi.o
 .debug_abbrev  0x00003b4f      0x361 build/ARDUINO/GPIO.o
 .debug_abbrev  0x00003eb0      0x310 build/ARDUINO/ADC.o
 .debug_abbrev  0x000041c0      0x50c build/ARDUINO/HardwareSerial.o
 .debug_abbrev  0x000046cc      0x5ad build/ARDUINO/Print.o
 .debug_abbrev  0x00004c79      0x29c build/HAL/main.o
 .debug_abbrev  0x00004f15      0x1fa build/HAL/gpio.o
 .debug_abbrev  0x0000510f      0x22e build/HAL/adc.o
 .debug_abbrev  0x0000533d      0x1e8 build/HAL/adc_ext.o
 .debug_abbrev  0x00005525      0x215 build/HAL/debugPins.o
 .debug_abbrev  0x0000573a      0x23f build/HAL/display_clock.o
 .debug_abbrev  0x00005979      0x203 build/HAL/dma.o
 .debug_abbrev  0x00005b7c      0x23f build/HAL/spi.o
 .debug_abbrev  0x00005dbb      0x263 build/HAL/tim.o
 .debug_abbrev  0x0000601e      0x340 build/HAL/usart.o
 .debug_abbrev  0x0000635e      0x218 build/HAL/stm32f4xx_it.o
 .debug_abbrev  0x00006576      0x203 build/HAL/stm32f4xx_hal_msp.o
 .debug_abbrev  0x00006779       0xa6 build/HAL/unused_int.o
 .debug_abbrev  0x0000681f      0x29c build/HAL/stm32f4xx_hal_adc.o
 .debug_abbrev  0x00006abb      0x297 build/HAL/stm32f4xx_hal_adc_ex.o
 .debug_abbrev  0x00006d52      0x2e6 build/HAL/stm32f4xx_hal_spi.o
 .debug_abbrev  0x00007038      0x2e7 build/HAL/stm32f4xx_hal_tim.o
 .debug_abbrev  0x0000731f      0x2c4 build/HAL/stm32f4xx_hal_tim_ex.o
 .debug_abbrev  0x000075e3      0x2f7 build/HAL/stm32f4xx_hal_uart.o
 .debug_abbrev  0x000078da      0x302 build/HAL/stm32f4xx_hal_rcc.o
 .debug_abbrev  0x00007bdc      0x279 build/HAL/stm32f4xx_hal_rcc_ex.o
 .debug_abbrev  0x00007e55      0x286 build/HAL/stm32f4xx_hal_gpio.o
 .debug_abbrev  0x000080db      0x2c0 build/HAL/stm32f4xx_hal_dma.o
 .debug_abbrev  0x0000839b      0x2ad build/HAL/stm32f4xx_hal_pwr_ex.o
 .debug_abbrev  0x00008648      0x39c build/HAL/stm32f4xx_hal_cortex.o
 .debug_abbrev  0x000089e4      0x2ba build/HAL/stm32f4xx_hal.o
 .debug_abbrev  0x00008c9e      0x10e build/HAL/system_stm32f4xx.o
 .debug_abbrev  0x00008dac       0x12 build/HAL/startup_stm32f446xx.o

.debug_aranges  0x00000000      0x838
 .debug_aranges
                0x00000000       0x20 build/PROJECT/App.o
 .debug_aranges
                0x00000020      0x158 build/PROJECT/sketch.o
 .debug_aranges
                0x00000178       0x20 build/PROJECT/midiTime.o
 .debug_aranges
                0x00000198       0x48 build/PROJECT/BlinkerPanel.o
 .debug_aranges
                0x000001e0       0x40 build/PROJECT/StatusPanel.o
 .debug_aranges
                0x00000220       0x20 build/PROJECT/SegmentVideo.o
 .debug_aranges
                0x00000240       0x20 build/ARDUINO/flagMessaging.o
 .debug_aranges
                0x00000260       0x38 build/ARDUINO/HardwareInterfaces.o
 .debug_aranges
                0x00000298       0x28 build/ARDUINO/Panel.o
 .debug_aranges
                0x000002c0       0x70 build/ARDUINO/PanelComponents.o
 .debug_aranges
                0x00000330       0x20 build/ARDUINO/PanelDataObjects.o
 .debug_aranges
                0x00000350       0x20 build/ARDUINO/timeKeeper.o
 .debug_aranges
                0x00000370       0x20 build/ARDUINO/timeKeeper32.o
 .debug_aranges
                0x00000390       0x20 build/ARDUINO/timerModule32.o
 .debug_aranges
                0x000003b0       0x20 build/ARDUINO/interface.o
 .debug_aranges
                0x000003d0       0x20 build/ARDUINO/abi.o
 .debug_aranges
                0x000003f0       0x20 build/ARDUINO/GPIO.o
 .debug_aranges
                0x00000410       0x20 build/ARDUINO/ADC.o
 .debug_aranges
                0x00000430       0x30 build/ARDUINO/HardwareSerial.o
 .debug_aranges
                0x00000460       0x50 build/ARDUINO/Print.o
 .debug_aranges
                0x000004b0       0x20 build/HAL/main.o
 .debug_aranges
                0x000004d0       0x20 build/HAL/gpio.o
 .debug_aranges
                0x000004f0       0x20 build/HAL/adc.o
 .debug_aranges
                0x00000510       0x20 build/HAL/adc_ext.o
 .debug_aranges
                0x00000530       0x20 build/HAL/debugPins.o
 .debug_aranges
                0x00000550       0x20 build/HAL/display_clock.o
 .debug_aranges
                0x00000570       0x20 build/HAL/dma.o
 .debug_aranges
                0x00000590       0x20 build/HAL/spi.o
 .debug_aranges
                0x000005b0       0x20 build/HAL/tim.o
 .debug_aranges
                0x000005d0       0x20 build/HAL/usart.o
 .debug_aranges
                0x000005f0       0x20 build/HAL/stm32f4xx_it.o
 .debug_aranges
                0x00000610       0x20 build/HAL/stm32f4xx_hal_msp.o
 .debug_aranges
                0x00000630       0x20 build/HAL/unused_int.o
 .debug_aranges
                0x00000650       0x20 build/HAL/stm32f4xx_hal_adc.o
 .debug_aranges
                0x00000670       0x20 build/HAL/stm32f4xx_hal_adc_ex.o
 .debug_aranges
                0x00000690       0x20 build/HAL/stm32f4xx_hal_spi.o
 .debug_aranges
                0x000006b0       0x20 build/HAL/stm32f4xx_hal_tim.o
 .debug_aranges
                0x000006d0       0x20 build/HAL/stm32f4xx_hal_tim_ex.o
 .debug_aranges
                0x000006f0       0x20 build/HAL/stm32f4xx_hal_uart.o
 .debug_aranges
                0x00000710       0x20 build/HAL/stm32f4xx_hal_rcc.o
 .debug_aranges
                0x00000730       0x20 build/HAL/stm32f4xx_hal_rcc_ex.o
 .debug_aranges
                0x00000750       0x20 build/HAL/stm32f4xx_hal_gpio.o
 .debug_aranges
                0x00000770       0x20 build/HAL/stm32f4xx_hal_dma.o
 .debug_aranges
                0x00000790       0x20 build/HAL/stm32f4xx_hal_pwr_ex.o
 .debug_aranges
                0x000007b0       0x20 build/HAL/stm32f4xx_hal_cortex.o
 .debug_aranges
                0x000007d0       0x20 build/HAL/stm32f4xx_hal.o
 .debug_aranges
                0x000007f0       0x20 build/HAL/system_stm32f4xx.o
 .debug_aranges
                0x00000810       0x28 build/HAL/startup_stm32f446xx.o

.debug_line     0x00000000     0xc456
 .debug_line    0x00000000      0x3c2 build/PROJECT/App.o
 .debug_line    0x000003c2      0xb1a build/PROJECT/sketch.o
 .debug_line    0x00000edc      0x4e1 build/PROJECT/midiTime.o
 .debug_line    0x000013bd      0x6ed build/PROJECT/BlinkerPanel.o
 .debug_line    0x00001aaa      0x536 build/PROJECT/StatusPanel.o
 .debug_line    0x00001fe0      0x4a6 build/PROJECT/SegmentVideo.o
 .debug_line    0x00002486      0x11f build/ARDUINO/flagMessaging.o
 .debug_line    0x000025a5      0x478 build/ARDUINO/HardwareInterfaces.o
 .debug_line    0x00002a1d      0x471 build/ARDUINO/Panel.o
 .debug_line    0x00002e8e      0x786 build/ARDUINO/PanelComponents.o
 .debug_line    0x00003614      0x456 build/ARDUINO/PanelDataObjects.o
 .debug_line    0x00003a6a      0x106 build/ARDUINO/timeKeeper.o
 .debug_line    0x00003b70      0x10a build/ARDUINO/timeKeeper32.o
 .debug_line    0x00003c7a      0x11c build/ARDUINO/timerModule32.o
 .debug_line    0x00003d96      0x3fa build/ARDUINO/interface.o
 .debug_line    0x00004190      0x205 build/ARDUINO/abi.o
 .debug_line    0x00004395      0x427 build/ARDUINO/GPIO.o
 .debug_line    0x000047bc      0x3d3 build/ARDUINO/ADC.o
 .debug_line    0x00004b8f      0x414 build/ARDUINO/HardwareSerial.o
 .debug_line    0x00004fa3      0x5a0 build/ARDUINO/Print.o
 .debug_line    0x00005543      0x326 build/HAL/main.o
 .debug_line    0x00005869      0x243 build/HAL/gpio.o
 .debug_line    0x00005aac      0x2a8 build/HAL/adc.o
 .debug_line    0x00005d54      0x258 build/HAL/adc_ext.o
 .debug_line    0x00005fac      0x236 build/HAL/debugPins.o
 .debug_line    0x000061e2      0x292 build/HAL/display_clock.o
 .debug_line    0x00006474      0x1d5 build/HAL/dma.o
 .debug_line    0x00006649      0x29d build/HAL/spi.o
 .debug_line    0x000068e6      0x2a4 build/HAL/tim.o
 .debug_line    0x00006b8a      0x375 build/HAL/usart.o
 .debug_line    0x00006eff      0x2d5 build/HAL/stm32f4xx_it.o
 .debug_line    0x000071d4      0x1e5 build/HAL/stm32f4xx_hal_msp.o
 .debug_line    0x000073b9      0x181 build/HAL/unused_int.o
 .debug_line    0x0000753a      0x54e build/HAL/stm32f4xx_hal_adc.o
 .debug_line    0x00007a88      0x4e7 build/HAL/stm32f4xx_hal_adc_ex.o
 .debug_line    0x00007f6f      0x938 build/HAL/stm32f4xx_hal_spi.o
 .debug_line    0x000088a7      0xec1 build/HAL/stm32f4xx_hal_tim.o
 .debug_line    0x00009768      0x662 build/HAL/stm32f4xx_hal_tim_ex.o
 .debug_line    0x00009dca      0x895 build/HAL/stm32f4xx_hal_uart.o
 .debug_line    0x0000a65f      0x430 build/HAL/stm32f4xx_hal_rcc.o
 .debug_line    0x0000aa8f      0x5db build/HAL/stm32f4xx_hal_rcc_ex.o
 .debug_line    0x0000b06a      0x3d5 build/HAL/stm32f4xx_hal_gpio.o
 .debug_line    0x0000b43f      0x47c build/HAL/stm32f4xx_hal_dma.o
 .debug_line    0x0000b8bb      0x2f3 build/HAL/stm32f4xx_hal_pwr_ex.o
 .debug_line    0x0000bbae      0x3bc build/HAL/stm32f4xx_hal_cortex.o
 .debug_line    0x0000bf6a      0x2e8 build/HAL/stm32f4xx_hal.o
 .debug_line    0x0000c252      0x190 build/HAL/system_stm32f4xx.o
 .debug_line    0x0000c3e2       0x74 build/HAL/startup_stm32f446xx.o

.debug_str      0x00000000     0xbdab
 .debug_str     0x00000000      0xab5 build/PROJECT/App.o
                                0xc58 (size before relaxing)
 .debug_str     0x00000ab5     0x347a build/PROJECT/sketch.o
                               0x426d (size before relaxing)
 .debug_str     0x00003f2f       0x94 build/PROJECT/midiTime.o
                               0x16a2 (size before relaxing)
 .debug_str     0x00003fc3      0x18a build/PROJECT/BlinkerPanel.o
                               0x1d32 (size before relaxing)
 .debug_str     0x0000414d       0x3f build/PROJECT/StatusPanel.o
                               0x19f5 (size before relaxing)
 .debug_str     0x0000418c      0x10c build/PROJECT/SegmentVideo.o
                               0x104f (size before relaxing)
 .debug_str     0x00004298       0x50 build/ARDUINO/flagMessaging.o
                                0x2eb (size before relaxing)
 .debug_str     0x000042e8      0x24e build/ARDUINO/HardwareInterfaces.o
                               0x10dc (size before relaxing)
 .debug_str     0x00004536       0x6a build/ARDUINO/Panel.o
                               0x10df (size before relaxing)
 .debug_str     0x000045a0      0xf6c build/ARDUINO/PanelComponents.o
                               0x2184 (size before relaxing)
 .debug_str     0x0000550c      0x116 build/ARDUINO/PanelDataObjects.o
                                0xe80 (size before relaxing)
 .debug_str     0x00005622       0x4e build/ARDUINO/timeKeeper.o
                                0x25b (size before relaxing)
 .debug_str     0x00005670       0x44 build/ARDUINO/timeKeeper32.o
                                0x257 (size before relaxing)
 .debug_str     0x000056b4       0x7c build/ARDUINO/timerModule32.o
                                0x2ca (size before relaxing)
 .debug_str     0x00005730      0x148 build/ARDUINO/interface.o
                                0xedd (size before relaxing)
 .debug_str     0x00005878       0x40 build/ARDUINO/abi.o
                                0x6cb (size before relaxing)
 .debug_str     0x000058b8      0x103 build/ARDUINO/GPIO.o
                                0xe67 (size before relaxing)
 .debug_str     0x000059bb       0x2c build/ARDUINO/ADC.o
                                0xc79 (size before relaxing)
 .debug_str     0x000059e7     0x116e build/ARDUINO/HardwareSerial.o
                               0x1f44 (size before relaxing)
 .debug_str     0x00006b55      0x574 build/ARDUINO/Print.o
                               0x1d8e (size before relaxing)
 .debug_str     0x000070c9      0xce5 build/HAL/main.o
                               0x165f (size before relaxing)
 .debug_str     0x00007dae       0x1d build/HAL/gpio.o
                                0x77b (size before relaxing)
 .debug_str     0x00007dcb       0x67 build/HAL/adc.o
                               0x10da (size before relaxing)
 .debug_str     0x00007e32       0x1e build/HAL/adc_ext.o
                                0x98e (size before relaxing)
 .debug_str     0x00007e50       0x5f build/HAL/debugPins.o
                                0x67a (size before relaxing)
 .debug_str     0x00007eaf       0x63 build/HAL/display_clock.o
                                0xa85 (size before relaxing)
 .debug_str     0x00007f12       0x1b build/HAL/dma.o
                                0xc0b (size before relaxing)
 .debug_str     0x00007f2d       0x55 build/HAL/spi.o
                               0x1101 (size before relaxing)
 .debug_str     0x00007f82      0x108 build/HAL/tim.o
                               0x119c (size before relaxing)
 .debug_str     0x0000808a      0x1da build/HAL/usart.o
                               0x1386 (size before relaxing)
 .debug_str     0x00008264      0x122 build/HAL/stm32f4xx_it.o
                                0xfc0 (size before relaxing)
 .debug_str     0x00008386       0x29 build/HAL/stm32f4xx_hal_msp.o
                                0xc19 (size before relaxing)
 .debug_str     0x000083af      0x7e3 build/HAL/unused_int.o
                                0x8a1 (size before relaxing)
 .debug_str     0x00008b92      0x2ca build/HAL/stm32f4xx_hal_adc.o
                                0xcec (size before relaxing)
 .debug_str     0x00008e5c      0x30e build/HAL/stm32f4xx_hal_adc_ex.o
                                0xd26 (size before relaxing)
 .debug_str     0x0000916a      0x4b9 build/HAL/stm32f4xx_hal_spi.o
                                0xf35 (size before relaxing)
 .debug_str     0x00009623      0xc5e build/HAL/stm32f4xx_hal_tim.o
                               0x1757 (size before relaxing)
 .debug_str     0x0000a281      0x505 build/HAL/stm32f4xx_hal_tim_ex.o
                               0x1012 (size before relaxing)
 .debug_str     0x0000a786      0x467 build/HAL/stm32f4xx_hal_uart.o
                                0xf83 (size before relaxing)
 .debug_str     0x0000abed      0x1d8 build/HAL/stm32f4xx_hal_rcc.o
                                0xabd (size before relaxing)
 .debug_str     0x0000adc5      0x353 build/HAL/stm32f4xx_hal_rcc_ex.o
                                0xbce (size before relaxing)
 .debug_str     0x0000b118      0x151 build/HAL/stm32f4xx_hal_gpio.o
                                0x90c (size before relaxing)
 .debug_str     0x0000b269      0x308 build/HAL/stm32f4xx_hal_dma.o
                                0xb61 (size before relaxing)
 .debug_str     0x0000b571      0x1bc build/HAL/stm32f4xx_hal_pwr_ex.o
                                0x8f7 (size before relaxing)
 .debug_str     0x0000b72d      0x3b9 build/HAL/stm32f4xx_hal_cortex.o
                               0x1052 (size before relaxing)
 .debug_str     0x0000bae6      0x25a build/HAL/stm32f4xx_hal.o
                                0xf5b (size before relaxing)
 .debug_str     0x0000bd40       0x47 build/HAL/system_stm32f4xx.o
                                0x379 (size before relaxing)
 .debug_str     0x0000bd87       0x24 build/HAL/startup_stm32f446xx.o
                                 0x45 (size before relaxing)

.comment        0x00000000       0x7f
 .comment       0x00000000       0x7f build/PROJECT/App.o
                                 0x80 (size before relaxing)
 .comment       0x0000007f       0x80 build/PROJECT/sketch.o
 .comment       0x0000007f       0x80 build/PROJECT/midiTime.o
 .comment       0x0000007f       0x80 build/PROJECT/BlinkerPanel.o
 .comment       0x0000007f       0x80 build/PROJECT/StatusPanel.o
 .comment       0x0000007f       0x80 build/PROJECT/SegmentVideo.o
 .comment       0x0000007f       0x80 build/ARDUINO/flagMessaging.o
 .comment       0x0000007f       0x80 build/ARDUINO/HardwareInterfaces.o
 .comment       0x0000007f       0x80 build/ARDUINO/Panel.o
 .comment       0x0000007f       0x80 build/ARDUINO/PanelComponents.o
 .comment       0x0000007f       0x80 build/ARDUINO/PanelDataObjects.o
 .comment       0x0000007f       0x80 build/ARDUINO/timeKeeper.o
 .comment       0x0000007f       0x80 build/ARDUINO/timeKeeper32.o
 .comment       0x0000007f       0x80 build/ARDUINO/timerModule32.o
 .comment       0x0000007f       0x80 build/ARDUINO/interface.o
 .comment       0x0000007f       0x80 build/ARDUINO/abi.o
 .comment       0x0000007f       0x80 build/ARDUINO/GPIO.o
 .comment       0x0000007f       0x80 build/ARDUINO/ADC.o
 .comment       0x0000007f       0x80 build/ARDUINO/HardwareSerial.o
 .comment       0x0000007f       0x80 build/ARDUINO/Print.o
 .comment       0x0000007f       0x80 build/HAL/main.o
 .comment       0x0000007f       0x80 build/HAL/gpio.o
 .comment       0x0000007f       0x80 build/HAL/adc.o
 .comment       0x0000007f       0x80 build/HAL/adc_ext.o
 .comment       0x0000007f       0x80 build/HAL/debugPins.o
 .comment       0x0000007f       0x80 build/HAL/display_clock.o
 .comment       0x0000007f       0x80 build/HAL/dma.o
 .comment       0x0000007f       0x80 build/HAL/spi.o
 .comment       0x0000007f       0x80 build/HAL/tim.o
 .comment       0x0000007f       0x80 build/HAL/usart.o
 .comment       0x0000007f       0x80 build/HAL/stm32f4xx_it.o
 .comment       0x0000007f       0x80 build/HAL/stm32f4xx_hal_msp.o
 .comment       0x0000007f       0x80 build/HAL/unused_int.o
 .comment       0x0000007f       0x80 build/HAL/stm32f4xx_hal_adc.o
 .comment       0x0000007f       0x80 build/HAL/stm32f4xx_hal_adc_ex.o
 .comment       0x0000007f       0x80 build/HAL/stm32f4xx_hal_spi.o
 .comment       0x0000007f       0x80 build/HAL/stm32f4xx_hal_tim.o
 .comment       0x0000007f       0x80 build/HAL/stm32f4xx_hal_tim_ex.o
 .comment       0x0000007f       0x80 build/HAL/stm32f4xx_hal_uart.o
 .comment       0x0000007f       0x80 build/HAL/stm32f4xx_hal_rcc.o
 .comment       0x0000007f       0x80 build/HAL/stm32f4xx_hal_rcc_ex.o
 .comment       0x0000007f       0x80 build/HAL/stm32f4xx_hal_gpio.o
 .comment       0x0000007f       0x80 build/HAL/stm32f4xx_hal_dma.o
 .comment       0x0000007f       0x80 build/HAL/stm32f4xx_hal_pwr_ex.o
 .comment       0x0000007f       0x80 build/HAL/stm32f4xx_hal_cortex.o
 .comment       0x0000007f       0x80 build/HAL/stm32f4xx_hal.o
 .comment       0x0000007f       0x80 build/HAL/system_stm32f4xx.o

.debug_frame    0x00000000     0x8868
 .debug_frame   0x00000000       0x2c build/PROJECT/App.o
 .debug_frame   0x0000002c      0x720 build/PROJECT/sketch.o
 .debug_frame   0x0000074c      0x228 build/PROJECT/midiTime.o
 .debug_frame   0x00000974      0x190 build/PROJECT/BlinkerPanel.o
 .debug_frame   0x00000b04      0x144 build/PROJECT/StatusPanel.o
 .debug_frame   0x00000c48      0x1b0 build/PROJECT/SegmentVideo.o
 .debug_frame   0x00000df8      0x100 build/ARDUINO/flagMessaging.o
 .debug_frame   0x00000ef8      0x15c build/ARDUINO/HardwareInterfaces.o
 .debug_frame   0x00001054       0xd4 build/ARDUINO/Panel.o
 .debug_frame   0x00001128      0x8bc build/ARDUINO/PanelComponents.o
 .debug_frame   0x000019e4      0x138 build/ARDUINO/PanelDataObjects.o
 .debug_frame   0x00001b1c       0xb0 build/ARDUINO/timeKeeper.o
 .debug_frame   0x00001bcc       0xb0 build/ARDUINO/timeKeeper32.o
 .debug_frame   0x00001c7c       0xb0 build/ARDUINO/timerModule32.o
 .debug_frame   0x00001d2c       0x90 build/ARDUINO/interface.o
 .debug_frame   0x00001dbc       0x40 build/ARDUINO/abi.o
 .debug_frame   0x00001dfc       0xa4 build/ARDUINO/GPIO.o
 .debug_frame   0x00001ea0       0x38 build/ARDUINO/ADC.o
 .debug_frame   0x00001ed8      0x1d4 build/ARDUINO/HardwareSerial.o
 .debug_frame   0x000020ac      0x568 build/ARDUINO/Print.o
 .debug_frame   0x00002614       0xac build/HAL/main.o
 .debug_frame   0x000026c0       0x34 build/HAL/gpio.o
 .debug_frame   0x000026f4       0x7c build/HAL/adc.o
 .debug_frame   0x00002770       0x30 build/HAL/adc_ext.o
 .debug_frame   0x000027a0       0x38 build/HAL/debugPins.o
 .debug_frame   0x000027d8       0x74 build/HAL/display_clock.o
 .debug_frame   0x0000284c       0x34 build/HAL/dma.o
 .debug_frame   0x00002880       0x74 build/HAL/spi.o
 .debug_frame   0x000028f4       0xa0 build/HAL/tim.o
 .debug_frame   0x00002994      0x22c build/HAL/usart.o
 .debug_frame   0x00002bc0      0x1ec build/HAL/stm32f4xx_it.o
 .debug_frame   0x00002dac       0x34 build/HAL/stm32f4xx_hal_msp.o
 .debug_frame   0x00002de0      0xb40 build/HAL/unused_int.o
 .debug_frame   0x00003920      0x3fc build/HAL/stm32f4xx_hal_adc.o
 .debug_frame   0x00003d1c      0x250 build/HAL/stm32f4xx_hal_adc_ex.o
 .debug_frame   0x00003f6c      0x7fc build/HAL/stm32f4xx_hal_spi.o
 .debug_frame   0x00004768      0xfb4 build/HAL/stm32f4xx_hal_tim.o
 .debug_frame   0x0000571c      0x574 build/HAL/stm32f4xx_hal_tim_ex.o
 .debug_frame   0x00005c90      0x83c build/HAL/stm32f4xx_hal_uart.o
 .debug_frame   0x000064cc      0x1f0 build/HAL/stm32f4xx_hal_rcc.o
 .debug_frame   0x000066bc      0x1e0 build/HAL/stm32f4xx_hal_rcc_ex.o
 .debug_frame   0x0000689c      0x14c build/HAL/stm32f4xx_hal_gpio.o
 .debug_frame   0x000069e8      0x250 build/HAL/stm32f4xx_hal_dma.o
 .debug_frame   0x00006c38      0x14c build/HAL/stm32f4xx_hal_pwr_ex.o
 .debug_frame   0x00006d84      0x498 build/HAL/stm32f4xx_hal_cortex.o
 .debug_frame   0x0000721c      0x33c build/HAL/stm32f4xx_hal.o
 .debug_frame   0x00007558       0x58 build/HAL/system_stm32f4xx.o
 .debug_frame   0x000075b0       0x28 c:/stm32/gcc-arm-none-eabi/bin/../lib/gcc/arm-none-eabi/7.3.1/../../../../arm-none-eabi/lib/thumb/v7e-m/fpv4-sp/hard\libstdc++_nano.a(new_op.o)
 .debug_frame   0x000075d8       0x20 c:/stm32/gcc-arm-none-eabi/bin/../lib/gcc/arm-none-eabi/7.3.1/../../../../arm-none-eabi/lib/thumb/v7e-m/fpv4-sp/hard\libstdc++_nano.a(del_op.o)
 .debug_frame   0x000075f8       0x54 c:/stm32/gcc-arm-none-eabi/bin/../lib/gcc/arm-none-eabi/7.3.1/../../../../arm-none-eabi/lib/thumb/v7e-m/fpv4-sp/hard\libstdc++_nano.a(eh_call.o)
 .debug_frame   0x0000764c       0x58 c:/stm32/gcc-arm-none-eabi/bin/../lib/gcc/arm-none-eabi/7.3.1/../../../../arm-none-eabi/lib/thumb/v7e-m/fpv4-sp/hard\libstdc++_nano.a(eh_aux_runtime.o)
 .debug_frame   0x000076a4       0x20 c:/stm32/gcc-arm-none-eabi/bin/../lib/gcc/arm-none-eabi/7.3.1/../../../../arm-none-eabi/lib/thumb/v7e-m/fpv4-sp/hard\libstdc++_nano.a(del_opv.o)
 .debug_frame   0x000076c4       0x30 c:/stm32/gcc-arm-none-eabi/bin/../lib/gcc/arm-none-eabi/7.3.1/../../../../arm-none-eabi/lib/thumb/v7e-m/fpv4-sp/hard\libstdc++_nano.a(new_handler.o)
 .debug_frame   0x000076f4       0x8c c:/stm32/gcc-arm-none-eabi/bin/../lib/gcc/arm-none-eabi/7.3.1/../../../../arm-none-eabi/lib/thumb/v7e-m/fpv4-sp/hard\libstdc++_nano.a(eh_catch.o)
 .debug_frame   0x00007780       0x30 c:/stm32/gcc-arm-none-eabi/bin/../lib/gcc/arm-none-eabi/7.3.1/../../../../arm-none-eabi/lib/thumb/v7e-m/fpv4-sp/hard\libstdc++_nano.a(eh_globals.o)
 .debug_frame   0x000077b0       0xb0 c:/stm32/gcc-arm-none-eabi/bin/../lib/gcc/arm-none-eabi/7.3.1/../../../../arm-none-eabi/lib/thumb/v7e-m/fpv4-sp/hard\libstdc++_nano.a(eh_terminate.o)
 .debug_frame   0x00007860       0x78 c:/stm32/gcc-arm-none-eabi/bin/../lib/gcc/arm-none-eabi/7.3.1/../../../../arm-none-eabi/lib/thumb/v7e-m/fpv4-sp/hard\libstdc++_nano.a(eh_arm.o)
 .debug_frame   0x000078d8       0x20 c:/stm32/gcc-arm-none-eabi/bin/../lib/gcc/arm-none-eabi/7.3.1/../../../../arm-none-eabi/lib/thumb/v7e-m/fpv4-sp/hard\libstdc++_nano.a(atexit_arm.o)
 .debug_frame   0x000078f8       0x20 c:/stm32/gcc-arm-none-eabi/bin/../lib/gcc/arm-none-eabi/7.3.1/../../../../arm-none-eabi/lib/thumb/v7e-m/fpv4-sp/hard\libstdc++_nano.a(new_opv.o)
 .debug_frame   0x00007918       0xf0 c:/stm32/gcc-arm-none-eabi/bin/../lib/gcc/arm-none-eabi/7.3.1/../../../../arm-none-eabi/lib/thumb/v7e-m/fpv4-sp/hard\libstdc++_nano.a(eh_exception.o)
 .debug_frame   0x00007a08       0x20 c:/stm32/gcc-arm-none-eabi/bin/../lib/gcc/arm-none-eabi/7.3.1/../../../../arm-none-eabi/lib/thumb/v7e-m/fpv4-sp/hard\libstdc++_nano.a(del_ops.o)
 .debug_frame   0x00007a28       0xd4 c:/stm32/gcc-arm-none-eabi/bin/../lib/gcc/arm-none-eabi/7.3.1/../../../../arm-none-eabi/lib/thumb/v7e-m/fpv4-sp/hard\libstdc++_nano.a(si_class_type_info.o)
 .debug_frame   0x00007afc       0x80 c:/stm32/gcc-arm-none-eabi/bin/../lib/gcc/arm-none-eabi/7.3.1/../../../../arm-none-eabi/lib/thumb/v7e-m/fpv4-sp/hard\libstdc++_nano.a(tinfo.o)
 .debug_frame   0x00007b7c       0xd8 c:/stm32/gcc-arm-none-eabi/bin/../lib/gcc/arm-none-eabi/7.3.1/../../../../arm-none-eabi/lib/thumb/v7e-m/fpv4-sp/hard\libstdc++_nano.a(class_type_info.o)
 .debug_frame   0x00007c54       0x28 c:/stm32/gcc-arm-none-eabi/bin/../lib/gcc/arm-none-eabi/7.3.1/../../../../arm-none-eabi/lib/thumb/v7e-m/fpv4-sp/hard\libc_nano.a(lib_a-abort.o)
 .debug_frame   0x00007c7c       0x28 c:/stm32/gcc-arm-none-eabi/bin/../lib/gcc/arm-none-eabi/7.3.1/../../../../arm-none-eabi/lib/thumb/v7e-m/fpv4-sp/hard\libc_nano.a(lib_a-cxa_atexit.o)
 .debug_frame   0x00007ca4       0x2c c:/stm32/gcc-arm-none-eabi/bin/../lib/gcc/arm-none-eabi/7.3.1/../../../../arm-none-eabi/lib/thumb/v7e-m/fpv4-sp/hard\libc_nano.a(lib_a-init.o)
 .debug_frame   0x00007cd0       0x30 c:/stm32/gcc-arm-none-eabi/bin/../lib/gcc/arm-none-eabi/7.3.1/../../../../arm-none-eabi/lib/thumb/v7e-m/fpv4-sp/hard\libc_nano.a(lib_a-malloc.o)
 .debug_frame   0x00007d00       0x28 c:/stm32/gcc-arm-none-eabi/bin/../lib/gcc/arm-none-eabi/7.3.1/../../../../arm-none-eabi/lib/thumb/v7e-m/fpv4-sp/hard\libc_nano.a(lib_a-memcpy-stub.o)
 .debug_frame   0x00007d28       0x28 c:/stm32/gcc-arm-none-eabi/bin/../lib/gcc/arm-none-eabi/7.3.1/../../../../arm-none-eabi/lib/thumb/v7e-m/fpv4-sp/hard\libc_nano.a(lib_a-memmove.o)
 .debug_frame   0x00007d50       0x20 c:/stm32/gcc-arm-none-eabi/bin/../lib/gcc/arm-none-eabi/7.3.1/../../../../arm-none-eabi/lib/thumb/v7e-m/fpv4-sp/hard\libc_nano.a(lib_a-memset.o)
 .debug_frame   0x00007d70       0x38 c:/stm32/gcc-arm-none-eabi/bin/../lib/gcc/arm-none-eabi/7.3.1/../../../../arm-none-eabi/lib/thumb/v7e-m/fpv4-sp/hard\libc_nano.a(lib_a-nano-freer.o)
 .debug_frame   0x00007da8       0x2c c:/stm32/gcc-arm-none-eabi/bin/../lib/gcc/arm-none-eabi/7.3.1/../../../../arm-none-eabi/lib/thumb/v7e-m/fpv4-sp/hard\libc_nano.a(lib_a-nano-mallocr.o)
 .debug_frame   0x00007dd4       0x2c c:/stm32/gcc-arm-none-eabi/bin/../lib/gcc/arm-none-eabi/7.3.1/../../../../arm-none-eabi/lib/thumb/v7e-m/fpv4-sp/hard\libc_nano.a(lib_a-sbrkr.o)
 .debug_frame   0x00007e00       0xcc c:/stm32/gcc-arm-none-eabi/bin/../lib/gcc/arm-none-eabi/7.3.1/../../../../arm-none-eabi/lib/thumb/v7e-m/fpv4-sp/hard\libc_nano.a(lib_a-signal.o)
 .debug_frame   0x00007ecc       0x3c c:/stm32/gcc-arm-none-eabi/bin/../lib/gcc/arm-none-eabi/7.3.1/../../../../arm-none-eabi/lib/thumb/v7e-m/fpv4-sp/hard\libc_nano.a(lib_a-signalr.o)
 .debug_frame   0x00007f08       0x6c c:/stm32/gcc-arm-none-eabi/bin/../lib/gcc/arm-none-eabi/7.3.1/../../../../arm-none-eabi/lib/thumb/v7e-m/fpv4-sp/hard\libc_nano.a(lib_a-sprintf.o)
 .debug_frame   0x00007f74       0x20 c:/stm32/gcc-arm-none-eabi/bin/../lib/gcc/arm-none-eabi/7.3.1/../../../../arm-none-eabi/lib/thumb/v7e-m/fpv4-sp/hard\libc_nano.a(lib_a-strcmp.o)
 .debug_frame   0x00007f94       0x30 c:/stm32/gcc-arm-none-eabi/bin/../lib/gcc/arm-none-eabi/7.3.1/../../../../arm-none-eabi/lib/thumb/v7e-m/fpv4-sp/hard\libc_nano.a(lib_a-mlock.o)
 .debug_frame   0x00007fc4       0x3c c:/stm32/gcc-arm-none-eabi/bin/../lib/gcc/arm-none-eabi/7.3.1/../../../../arm-none-eabi/lib/thumb/v7e-m/fpv4-sp/hard\libc_nano.a(lib_a-nano-reallocr.o)
 .debug_frame   0x00008000       0x90 c:/stm32/gcc-arm-none-eabi/bin/../lib/gcc/arm-none-eabi/7.3.1/../../../../arm-none-eabi/lib/thumb/v7e-m/fpv4-sp/hard\libc_nano.a(lib_a-nano-svfprintf.o)
 .debug_frame   0x00008090       0x60 c:/stm32/gcc-arm-none-eabi/bin/../lib/gcc/arm-none-eabi/7.3.1/../../../../arm-none-eabi/lib/thumb/v7e-m/fpv4-sp/hard\libc_nano.a(lib_a-nano-vfprintf_i.o)
 .debug_frame   0x000080f0       0x5c c:/stm32/gcc-arm-none-eabi/bin/../lib/gcc/arm-none-eabi/7.3.1/../../../../arm-none-eabi/lib/thumb/v7e-m/fpv4-sp/hard\libc_nano.a(lib_a-reent.o)
 .debug_frame   0x0000814c       0x20 c:/stm32/gcc-arm-none-eabi/bin/../lib/gcc/arm-none-eabi/7.3.1/../../../../arm-none-eabi/lib/thumb/v7e-m/fpv4-sp/hard\libc_nano.a(lib_a-nano-msizer.o)
 .debug_frame   0x0000816c       0xac c:/stm32/gcc-arm-none-eabi/bin/../lib/gcc/arm-none-eabi/7.3.1/thumb/v7e-m/fpv4-sp/hard\libgcc.a(_arm_addsubdf3.o)
 .debug_frame   0x00008218       0x50 c:/stm32/gcc-arm-none-eabi/bin/../lib/gcc/arm-none-eabi/7.3.1/thumb/v7e-m/fpv4-sp/hard\libgcc.a(_arm_muldivdf3.o)
 .debug_frame   0x00008268       0xc4 c:/stm32/gcc-arm-none-eabi/bin/../lib/gcc/arm-none-eabi/7.3.1/thumb/v7e-m/fpv4-sp/hard\libgcc.a(_arm_cmpdf2.o)
 .debug_frame   0x0000832c       0x20 c:/stm32/gcc-arm-none-eabi/bin/../lib/gcc/arm-none-eabi/7.3.1/thumb/v7e-m/fpv4-sp/hard\libgcc.a(_arm_unorddf2.o)
 .debug_frame   0x0000834c       0x24 c:/stm32/gcc-arm-none-eabi/bin/../lib/gcc/arm-none-eabi/7.3.1/thumb/v7e-m/fpv4-sp/hard\libgcc.a(_arm_fixdfsi.o)
 .debug_frame   0x00008370       0x24 c:/stm32/gcc-arm-none-eabi/bin/../lib/gcc/arm-none-eabi/7.3.1/thumb/v7e-m/fpv4-sp/hard\libgcc.a(_arm_fixunsdfsi.o)
 .debug_frame   0x00008394       0x2c c:/stm32/gcc-arm-none-eabi/bin/../lib/gcc/arm-none-eabi/7.3.1/thumb/v7e-m/fpv4-sp/hard\libgcc.a(_aeabi_uldivmod.o)
 .debug_frame   0x000083c0       0x34 c:/stm32/gcc-arm-none-eabi/bin/../lib/gcc/arm-none-eabi/7.3.1/thumb/v7e-m/fpv4-sp/hard\libgcc.a(_udivmoddi4.o)
 .debug_frame   0x000083f4      0x2f0 c:/stm32/gcc-arm-none-eabi/bin/../lib/gcc/arm-none-eabi/7.3.1/thumb/v7e-m/fpv4-sp/hard\libgcc.a(unwind-arm.o)
 .debug_frame   0x000086e4      0x104 c:/stm32/gcc-arm-none-eabi/bin/../lib/gcc/arm-none-eabi/7.3.1/thumb/v7e-m/fpv4-sp/hard\libgcc.a(pr-support.o)
 .debug_frame   0x000087e8       0x20 c:/stm32/gcc-arm-none-eabi/bin/../lib/gcc/arm-none-eabi/7.3.1/../../../../arm-none-eabi/lib/thumb/v7e-m/fpv4-sp/hard\libnosys.a(getpid.o)
 .debug_frame   0x00008808       0x20 c:/stm32/gcc-arm-none-eabi/bin/../lib/gcc/arm-none-eabi/7.3.1/../../../../arm-none-eabi/lib/thumb/v7e-m/fpv4-sp/hard\libnosys.a(kill.o)
 .debug_frame   0x00008828       0x20 c:/stm32/gcc-arm-none-eabi/bin/../lib/gcc/arm-none-eabi/7.3.1/../../../../arm-none-eabi/lib/thumb/v7e-m/fpv4-sp/hard\libnosys.a(sbrk.o)
 .debug_frame   0x00008848       0x20 c:/stm32/gcc-arm-none-eabi/bin/../lib/gcc/arm-none-eabi/7.3.1/../../../../arm-none-eabi/lib/thumb/v7e-m/fpv4-sp/hard\libnosys.a(_exit.o)

.debug_ranges   0x00000000      0x2d0
 .debug_ranges  0x00000000      0x148 build/PROJECT/sketch.o
 .debug_ranges  0x00000148       0x38 build/PROJECT/BlinkerPanel.o
 .debug_ranges  0x00000180       0x30 build/PROJECT/StatusPanel.o
 .debug_ranges  0x000001b0       0x28 build/ARDUINO/HardwareInterfaces.o
 .debug_ranges  0x000001d8       0x18 build/ARDUINO/Panel.o
 .debug_ranges  0x000001f0       0x60 build/ARDUINO/PanelComponents.o
 .debug_ranges  0x00000250       0x20 build/ARDUINO/HardwareSerial.o
 .debug_ranges  0x00000270       0x40 build/ARDUINO/Print.o
 .debug_ranges  0x000002b0       0x20 build/HAL/startup_stm32f446xx.o

.stab           0x00000000       0x3c
 .stab          0x00000000       0x24 c:/stm32/gcc-arm-none-eabi/bin/../lib/gcc/arm-none-eabi/7.3.1/../../../../arm-none-eabi/lib/thumb/v7e-m/fpv4-sp/hard\libnosys.a(getpid.o)
 .stab          0x00000024       0x18 c:/stm32/gcc-arm-none-eabi/bin/../lib/gcc/arm-none-eabi/7.3.1/../../../../arm-none-eabi/lib/thumb/v7e-m/fpv4-sp/hard\libnosys.a(kill.o)
                                 0x24 (size before relaxing)

.stabstr        0x00000000       0x76
 .stabstr       0x00000000       0x76 c:/stm32/gcc-arm-none-eabi/bin/../lib/gcc/arm-none-eabi/7.3.1/../../../../arm-none-eabi/lib/thumb/v7e-m/fpv4-sp/hard\libnosys.a(getpid.o)
